; generated by Component: ARM Compiler 5.06 update 6 (build 750) Tool: ArmCC [4d3637]
; commandline ArmCC [--c99 --list --split_sections --debug -c --asm --interleave -o.\flash\obj\bsp_lcd.o --asm_dir=.\Flash\List\ --list_dir=.\Flash\List\ --depend=.\flash\obj\bsp_lcd.d --cpu=Cortex-M4.fp --apcs=interwork -O0 --diag_suppress=9931,870 -I..\..\Libraries\CMSIS\Include -I..\..\Libraries\CMSIS\Device\ST\STM32F4xx\Include -I..\..\Libraries\STM32F4xx_StdPeriph_Driver\inc -I..\..\User\bsp_stm32f4xx\inc -I..\..\User\bsp_stm32f4xx -I..\..\User -I..\..\USMART -I..\..\User\bsp_stm32f4xx\LCD -I..\..\User\bsp_stm32f4xx\phase_shift -I..\..\User\bsp_stm32f4xx\PWMInput -I..\..\User\bsp_stm32f4xx\ADC -D__MICROLIB -D__UVISION_VERSION=525 -D_RTE_ -DSTM32F427xx -DUSE_STDPERIPH_DRIVER -DSTM32F40_41xxx -DARM_MATH_CM4 --omf_browse=.\flash\obj\bsp_lcd.crf ..\..\User\bsp_stm32f4xx\LCD\bsp_lcd.c]
                          THUMB

                          AREA ||i.BlockWrite||, CODE, READONLY, ALIGN=1

                  BlockWrite PROC
;;;420    ***********************************************/
;;;421    void BlockWrite(unsigned int Xstart,unsigned int Xend,unsigned int Ystart,unsigned int Yend) 
000000  e92d41f0          PUSH     {r4-r8,lr}
;;;422    {
000004  4604              MOV      r4,r0
000006  460d              MOV      r5,r1
000008  4616              MOV      r6,r2
00000a  461f              MOV      r7,r3
;;;423    	//HX8352-C
;;;424    
;;;425    	WriteComm(0x2a);   
00000c  202a              MOVS     r0,#0x2a
00000e  f7fffffe          BL       WriteComm
;;;426    	WriteData(Xstart>>8);
000012  f3c4200f          UBFX     r0,r4,#8,#16
000016  f7fffffe          BL       WriteData
;;;427    	WriteData(Xstart&0xff);
00001a  b2e0              UXTB     r0,r4
00001c  f7fffffe          BL       WriteData
;;;428    	WriteData(Xend>>8);
000020  f3c5200f          UBFX     r0,r5,#8,#16
000024  f7fffffe          BL       WriteData
;;;429    	WriteData(Xend&0xff);
000028  b2e8              UXTB     r0,r5
00002a  f7fffffe          BL       WriteData
;;;430    
;;;431    	WriteComm(0x2b);   
00002e  202b              MOVS     r0,#0x2b
000030  f7fffffe          BL       WriteComm
;;;432    	WriteData(Ystart>>8);
000034  f3c6200f          UBFX     r0,r6,#8,#16
000038  f7fffffe          BL       WriteData
;;;433    	WriteData(Ystart&0xff);
00003c  b2f0              UXTB     r0,r6
00003e  f7fffffe          BL       WriteData
;;;434    	WriteData(Yend>>8);
000042  f3c7200f          UBFX     r0,r7,#8,#16
000046  f7fffffe          BL       WriteData
;;;435    	WriteData(Yend&0xff);
00004a  b2f8              UXTB     r0,r7
00004c  f7fffffe          BL       WriteData
;;;436    
;;;437    	WriteComm(0x2c);
000050  202c              MOVS     r0,#0x2c
000052  f7fffffe          BL       WriteComm
;;;438    }
000056  e8bd81f0          POP      {r4-r8,pc}
;;;439      
                          ENDP


                          AREA ||i.Delay||, CODE, READONLY, ALIGN=1

                  Delay PROC
;;;21     */
;;;22     void Delay(u16 t)
000000  b510              PUSH     {r4,lr}
;;;23     {
000002  4604              MOV      r4,r0
;;;24       bsp_DelayMS(t);
000004  4620              MOV      r0,r4
000006  f7fffffe          BL       bsp_DelayMS
;;;25     }
00000a  bd10              POP      {r4,pc}
;;;26     
                          ENDP


                          AREA ||i.DrawLine||, CODE, READONLY, ALIGN=1

                  DrawLine PROC
;;;562    //x2,y2:终点坐标  
;;;563    void DrawLine(u16 x1, u16 y1, u16 x2, u16 y2,u16 color)
000000  e92d4fff          PUSH     {r0-r11,lr}
;;;564    {
000004  b085              SUB      sp,sp,#0x14
000006  4681              MOV      r9,r0
000008  468a              MOV      r10,r1
;;;565    	u16 t; 
;;;566    	int xerr=0,yerr=0,delta_x,delta_y,distance; 
00000a  2000              MOVS     r0,#0
00000c  9003              STR      r0,[sp,#0xc]
00000e  4683              MOV      r11,r0
;;;567    	int incx,incy,uRow,uCol; 
;;;568    	delta_x=x2-x1; //计算坐标增量 
000010  9807              LDR      r0,[sp,#0x1c]
000012  eba00509          SUB      r5,r0,r9
;;;569    	delta_y=y2-y1; 
000016  9808              LDR      r0,[sp,#0x20]
000018  eba0060a          SUB      r6,r0,r10
;;;570    	uRow=x1; 
00001c  f8cd9008          STR      r9,[sp,#8]
;;;571    	uCol=y1; 
000020  f8cda004          STR      r10,[sp,#4]
;;;572    	if(delta_x>0)incx=1; //设置单步方向 
000024  2d00              CMP      r5,#0
000026  dd01              BLE      |L3.44|
000028  2701              MOVS     r7,#1
00002a  e005              B        |L3.56|
                  |L3.44|
;;;573    	else if(delta_x==0)incx=0;//垂直线 
00002c  b90d              CBNZ     r5,|L3.50|
00002e  2700              MOVS     r7,#0
000030  e002              B        |L3.56|
                  |L3.50|
;;;574    	else {incx=-1;delta_x=-delta_x;} 
000032  f04f37ff          MOV      r7,#0xffffffff
000036  426d              RSBS     r5,r5,#0
                  |L3.56|
;;;575    	if(delta_y>0)incy=1; 
000038  2e00              CMP      r6,#0
00003a  dd02              BLE      |L3.66|
00003c  f04f0801          MOV      r8,#1
000040  e006              B        |L3.80|
                  |L3.66|
;;;576    	else if(delta_y==0)incy=0;//水平线 
000042  b916              CBNZ     r6,|L3.74|
000044  f04f0800          MOV      r8,#0
000048  e002              B        |L3.80|
                  |L3.74|
;;;577    	else{incy=-1;delta_y=-delta_y;} 
00004a  f04f38ff          MOV      r8,#0xffffffff
00004e  4276              RSBS     r6,r6,#0
                  |L3.80|
;;;578    	if( delta_x>delta_y)distance=delta_x; //选取基本增量坐标轴 
000050  42b5              CMP      r5,r6
000052  dd01              BLE      |L3.88|
000054  462c              MOV      r4,r5
000056  e000              B        |L3.90|
                  |L3.88|
;;;579    	else distance=delta_y; 
000058  4634              MOV      r4,r6
                  |L3.90|
;;;580    	for(t=0;t<=distance+1;t++ )//画线输出 
00005a  2000              MOVS     r0,#0
00005c  9004              STR      r0,[sp,#0x10]
00005e  e01e              B        |L3.158|
                  |L3.96|
;;;581    	{  
;;;582    		DrawPoint(uRow,uCol,color);//画点 
000060  9a01              LDR      r2,[sp,#4]
000062  b291              UXTH     r1,r2
000064  9a02              LDR      r2,[sp,#8]
000066  b290              UXTH     r0,r2
000068  9a12              LDR      r2,[sp,#0x48]
00006a  f7fffffe          BL       DrawPoint
;;;583    		xerr+=delta_x ; 
00006e  9803              LDR      r0,[sp,#0xc]
000070  4428              ADD      r0,r0,r5
000072  9003              STR      r0,[sp,#0xc]
;;;584    		yerr+=delta_y ; 
000074  44b3              ADD      r11,r11,r6
;;;585    		if(xerr>distance) 
000076  9803              LDR      r0,[sp,#0xc]
000078  42a0              CMP      r0,r4
00007a  dd05              BLE      |L3.136|
;;;586    		{ 
;;;587    			xerr-=distance; 
00007c  9803              LDR      r0,[sp,#0xc]
00007e  1b00              SUBS     r0,r0,r4
000080  9003              STR      r0,[sp,#0xc]
;;;588    			uRow+=incx; 
000082  9802              LDR      r0,[sp,#8]
000084  4438              ADD      r0,r0,r7
000086  9002              STR      r0,[sp,#8]
                  |L3.136|
;;;589    		} 
;;;590    		if(yerr>distance) 
000088  45a3              CMP      r11,r4
00008a  dd04              BLE      |L3.150|
;;;591    		{ 
;;;592    			yerr-=distance; 
00008c  ebab0b04          SUB      r11,r11,r4
;;;593    			uCol+=incy; 
000090  9801              LDR      r0,[sp,#4]
000092  4440              ADD      r0,r0,r8
000094  9001              STR      r0,[sp,#4]
                  |L3.150|
000096  9804              LDR      r0,[sp,#0x10]         ;580
000098  1c40              ADDS     r0,r0,#1              ;580
00009a  b280              UXTH     r0,r0                 ;580
00009c  9004              STR      r0,[sp,#0x10]         ;580
                  |L3.158|
00009e  1c61              ADDS     r1,r4,#1              ;580
0000a0  9804              LDR      r0,[sp,#0x10]         ;580
0000a2  4288              CMP      r0,r1                 ;580
0000a4  dddc              BLE      |L3.96|
;;;594    		} 
;;;595    	}  
;;;596    }  
0000a6  b009              ADD      sp,sp,#0x24
0000a8  e8bd8ff0          POP      {r4-r11,pc}
;;;597    
                          ENDP


                          AREA ||i.DrawPoint||, CODE, READONLY, ALIGN=1

                  DrawPoint PROC
;;;467    /* 画点函数*/
;;;468    void DrawPoint(u16 x, u16 y, u16 Color)
000000  b570              PUSH     {r4-r6,lr}
;;;469    {
000002  4604              MOV      r4,r0
000004  460d              MOV      r5,r1
000006  4616              MOV      r6,r2
;;;470    	WriteComm(0x2a); 
000008  202a              MOVS     r0,#0x2a
00000a  f7fffffe          BL       WriteComm
;;;471     	WriteData(x>>8);
00000e  1220              ASRS     r0,r4,#8
000010  f7fffffe          BL       WriteData
;;;472      WriteData(x&0xff);
000014  b2e0              UXTB     r0,r4
000016  f7fffffe          BL       WriteData
;;;473    	WriteData(x>>8);
00001a  1220              ASRS     r0,r4,#8
00001c  f7fffffe          BL       WriteData
;;;474      WriteData(x&0xff);
000020  b2e0              UXTB     r0,r4
000022  f7fffffe          BL       WriteData
;;;475    	WriteComm(0x2b); 
000026  202b              MOVS     r0,#0x2b
000028  f7fffffe          BL       WriteComm
;;;476     	WriteData(y>>8);
00002c  1228              ASRS     r0,r5,#8
00002e  f7fffffe          BL       WriteData
;;;477      WriteData(y&0xff);
000032  b2e8              UXTB     r0,r5
000034  f7fffffe          BL       WriteData
;;;478    	WriteData(y>>8);
000038  1228              ASRS     r0,r5,#8
00003a  f7fffffe          BL       WriteData
;;;479      WriteData(y&0xff);
00003e  b2e8              UXTB     r0,r5
000040  f7fffffe          BL       WriteData
;;;480    	WriteComm(0x2c); 
000044  202c              MOVS     r0,#0x2c
000046  f7fffffe          BL       WriteComm
;;;481     	WriteData(Color);
00004a  4630              MOV      r0,r6
00004c  f7fffffe          BL       WriteData
;;;482    }
000050  bd70              POP      {r4-r6,pc}
;;;483    
                          ENDP


                          AREA ||i.DrawRGBImage||, CODE, READONLY, ALIGN=1

                  DrawRGBImage PROC
;;;759    // Xsize Ysize 为图片大少
;;;760    void DrawRGBImage(uint16_t Xpos, uint16_t Ypos, uint16_t Xsize, uint16_t Ysize,const unsigned char  *pData)
000000  e92d5ff0          PUSH     {r4-r12,lr}
;;;761    {
000004  4680              MOV      r8,r0
000006  460c              MOV      r4,r1
000008  4615              MOV      r5,r2
00000a  461e              MOV      r6,r3
00000c  9f0a              LDR      r7,[sp,#0x28]
;;;762    	u32 index;
;;;763      u32 ImageSize = 0;
00000e  f04f0b00          MOV      r11,#0
;;;764      u16 data;
;;;765    	
;;;766    	ImageSize = (Xsize * Ysize);
000012  fb05fb06          MUL      r11,r5,r6
;;;767    	
;;;768    	BlockWrite(Xpos,Xpos+Xsize-1,Ypos,Ypos+Ysize-1);
000016  19a0              ADDS     r0,r4,r6
000018  1e43              SUBS     r3,r0,#1
00001a  eb080005          ADD      r0,r8,r5
00001e  1e41              SUBS     r1,r0,#1
000020  4622              MOV      r2,r4
000022  4640              MOV      r0,r8
000024  f7fffffe          BL       BlockWrite
;;;769    	for(index = 0; index < ImageSize; index++)
000028  f04f0900          MOV      r9,#0
00002c  e00c              B        |L5.72|
                  |L5.46|
;;;770    	{
;;;771    		data=(*pData);
00002e  f897a000          LDRB     r10,[r7,#0]
;;;772    		data+=(*(pData+1))<<8;
000032  7878              LDRB     r0,[r7,#1]
000034  eb0a2000          ADD      r0,r10,r0,LSL #8
000038  fa1ffa80          UXTH     r10,r0
;;;773    		WriteData((u16)data);
00003c  4650              MOV      r0,r10
00003e  f7fffffe          BL       WriteData
;;;774    		pData += 2;
000042  1cbf              ADDS     r7,r7,#2
000044  f1090901          ADD      r9,r9,#1              ;769
                  |L5.72|
000048  45d9              CMP      r9,r11                ;769
00004a  d3f0              BCC      |L5.46|
;;;775    	}
;;;776    }
00004c  e8bd9ff0          POP      {r4-r12,pc}
;;;777    
                          ENDP


                          AREA ||i.DrawRectangle||, CODE, READONLY, ALIGN=1

                  DrawRectangle PROC
;;;600    //(x1,y1),(x2,y2):矩形的对角坐标
;;;601    void DrawRectangle(u16 x1, u16 y1, u16 x2, u16 y2,u16 color)
000000  e92d43f8          PUSH     {r3-r9,lr}
;;;602    {
000004  4605              MOV      r5,r0
000006  460e              MOV      r6,r1
000008  4617              MOV      r7,r2
00000a  4698              MOV      r8,r3
00000c  9c08              LDR      r4,[sp,#0x20]
;;;603    	DrawLine(x1,y1,x2,y1,color);
00000e  4633              MOV      r3,r6
000010  463a              MOV      r2,r7
000012  4631              MOV      r1,r6
000014  4628              MOV      r0,r5
000016  9400              STR      r4,[sp,#0]
000018  f7fffffe          BL       DrawLine
;;;604    	DrawLine(x1,y1,x1,y2,color);
00001c  4643              MOV      r3,r8
00001e  462a              MOV      r2,r5
000020  4631              MOV      r1,r6
000022  4628              MOV      r0,r5
000024  9400              STR      r4,[sp,#0]
000026  f7fffffe          BL       DrawLine
;;;605    	DrawLine(x1,y2,x2,y2,color);
00002a  4643              MOV      r3,r8
00002c  463a              MOV      r2,r7
00002e  4641              MOV      r1,r8
000030  4628              MOV      r0,r5
000032  9400              STR      r4,[sp,#0]
000034  f7fffffe          BL       DrawLine
;;;606    	DrawLine(x2,y1,x2,y2,color);
000038  4643              MOV      r3,r8
00003a  463a              MOV      r2,r7
00003c  4631              MOV      r1,r6
00003e  4638              MOV      r0,r7
000040  9400              STR      r4,[sp,#0]
000042  f7fffffe          BL       DrawLine
;;;607    }
000046  e8bd83f8          POP      {r3-r9,pc}
;;;608    
                          ENDP


                          AREA ||i.Draw_Circle||, CODE, READONLY, ALIGN=1

                  Draw_Circle PROC
;;;531    /*画圆*/
;;;532    void Draw_Circle(u16 x0,u16 y0,u8 r,u16 color)
000000  e92d47f0          PUSH     {r4-r10,lr}
;;;533    {
000004  4606              MOV      r6,r0
000006  460f              MOV      r7,r1
000008  4690              MOV      r8,r2
00000a  469a              MOV      r10,r3
;;;534    	int a,b;
;;;535    	int di;
;;;536    	a=0;b=r;	  
00000c  2400              MOVS     r4,#0
00000e  4645              MOV      r5,r8
;;;537    	di=3-(r<<1);             //判断下个点位置的标志
000010  2003              MOVS     r0,#3
000012  eba00948          SUB      r9,r0,r8,LSL #1
;;;538    	while(a<=b)
000016  e044              B        |L7.162|
                  |L7.24|
;;;539    	{
;;;540    		DrawPoint(x0+a,y0-b,color);             //5
000018  1b7a              SUBS     r2,r7,r5
00001a  b291              UXTH     r1,r2
00001c  1932              ADDS     r2,r6,r4
00001e  b290              UXTH     r0,r2
000020  4652              MOV      r2,r10
000022  f7fffffe          BL       DrawPoint
;;;541     		DrawPoint(x0+b,y0-a,color);             //0           
000026  1b3a              SUBS     r2,r7,r4
000028  b291              UXTH     r1,r2
00002a  1972              ADDS     r2,r6,r5
00002c  b290              UXTH     r0,r2
00002e  4652              MOV      r2,r10
000030  f7fffffe          BL       DrawPoint
;;;542    		DrawPoint(x0+b,y0+a,color);             //4               
000034  193a              ADDS     r2,r7,r4
000036  b291              UXTH     r1,r2
000038  1972              ADDS     r2,r6,r5
00003a  b290              UXTH     r0,r2
00003c  4652              MOV      r2,r10
00003e  f7fffffe          BL       DrawPoint
;;;543    		DrawPoint(x0+a,y0+b,color);             //6 
000042  197a              ADDS     r2,r7,r5
000044  b291              UXTH     r1,r2
000046  1932              ADDS     r2,r6,r4
000048  b290              UXTH     r0,r2
00004a  4652              MOV      r2,r10
00004c  f7fffffe          BL       DrawPoint
;;;544    		DrawPoint(x0-a,y0+b,color);             //1       
000050  197a              ADDS     r2,r7,r5
000052  b291              UXTH     r1,r2
000054  1b32              SUBS     r2,r6,r4
000056  b290              UXTH     r0,r2
000058  4652              MOV      r2,r10
00005a  f7fffffe          BL       DrawPoint
;;;545     		DrawPoint(x0-b,y0+a,color);             
00005e  193a              ADDS     r2,r7,r4
000060  b291              UXTH     r1,r2
000062  1b72              SUBS     r2,r6,r5
000064  b290              UXTH     r0,r2
000066  4652              MOV      r2,r10
000068  f7fffffe          BL       DrawPoint
;;;546    		DrawPoint(x0-a,y0-b,color);             //2             
00006c  1b7a              SUBS     r2,r7,r5
00006e  b291              UXTH     r1,r2
000070  1b32              SUBS     r2,r6,r4
000072  b290              UXTH     r0,r2
000074  4652              MOV      r2,r10
000076  f7fffffe          BL       DrawPoint
;;;547      	DrawPoint(x0-b,y0-a,color);             //7     	         
00007a  1b3a              SUBS     r2,r7,r4
00007c  b291              UXTH     r1,r2
00007e  1b72              SUBS     r2,r6,r5
000080  b290              UXTH     r0,r2
000082  4652              MOV      r2,r10
000084  f7fffffe          BL       DrawPoint
;;;548    		a++;
000088  1c64              ADDS     r4,r4,#1
;;;549    		//使用Bresenham算法画圆     
;;;550    		if(di<0)di +=4*a+6;	  
00008a  f1b90f00          CMP      r9,#0
00008e  da03              BGE      |L7.152|
000090  00a0              LSLS     r0,r4,#2
000092  1d80              ADDS     r0,r0,#6
000094  4481              ADD      r9,r9,r0
000096  e004              B        |L7.162|
                  |L7.152|
;;;551    		else
;;;552    		{
;;;553    			di+=10+4*(a-b);   
000098  1b60              SUBS     r0,r4,r5
00009a  0080              LSLS     r0,r0,#2
00009c  300a              ADDS     r0,r0,#0xa
00009e  4481              ADD      r9,r9,r0
;;;554    			b--;
0000a0  1e6d              SUBS     r5,r5,#1
                  |L7.162|
0000a2  42ac              CMP      r4,r5                 ;538
0000a4  ddb8              BLE      |L7.24|
;;;555    		} 						    
;;;556    	}
;;;557    } 	
0000a6  e8bd87f0          POP      {r4-r10,pc}
;;;558    
                          ENDP


                          AREA ||i.LCD_FSMC_Config||, CODE, READONLY, ALIGN=1

                  LCD_FSMC_Config PROC
;;;96      */
;;;97     static void LCD_FSMC_Config(void)
000000  b500              PUSH     {lr}
;;;98     {
000002  b097              SUB      sp,sp,#0x5c
;;;99         FSMC_NORSRAMInitTypeDef  FSMC_NORSRAMInitStructure;
;;;100        FSMC_NORSRAMTimingInitTypeDef  p; 
;;;101        
;;;102        
;;;103        p.FSMC_AddressSetupTime = 0x02;	 //地址建立时间
000004  2002              MOVS     r0,#2
000006  9001              STR      r0,[sp,#4]
;;;104        p.FSMC_AddressHoldTime = 0x00;	 //地址保持时间
000008  2000              MOVS     r0,#0
00000a  9002              STR      r0,[sp,#8]
;;;105        p.FSMC_DataSetupTime = 0x05;		 //数据建立时间
00000c  2005              MOVS     r0,#5
00000e  9003              STR      r0,[sp,#0xc]
;;;106        p.FSMC_BusTurnAroundDuration = 0x00;
000010  2000              MOVS     r0,#0
000012  9004              STR      r0,[sp,#0x10]
;;;107        p.FSMC_CLKDivision = 0x00;
000014  9005              STR      r0,[sp,#0x14]
;;;108        p.FSMC_DataLatency = 0x00;
000016  9006              STR      r0,[sp,#0x18]
;;;109    
;;;110        p.FSMC_AccessMode = FSMC_AccessMode_A;	 // 一般使用模式B来控制LCD
000018  9007              STR      r0,[sp,#0x1c]
;;;111        
;;;112        FSMC_NORSRAMInitStructure.FSMC_Bank = FSMC_Bank1_NORSRAM1;
00001a  9008              STR      r0,[sp,#0x20]
;;;113        FSMC_NORSRAMInitStructure.FSMC_DataAddressMux = FSMC_DataAddressMux_Disable;
00001c  9009              STR      r0,[sp,#0x24]
;;;114        FSMC_NORSRAMInitStructure.FSMC_MemoryType = FSMC_MemoryType_NOR;
00001e  2008              MOVS     r0,#8
000020  900a              STR      r0,[sp,#0x28]
;;;115        FSMC_NORSRAMInitStructure.FSMC_MemoryDataWidth = FSMC_MemoryDataWidth_16b;
000022  2010              MOVS     r0,#0x10
000024  900b              STR      r0,[sp,#0x2c]
;;;116        FSMC_NORSRAMInitStructure.FSMC_BurstAccessMode = FSMC_BurstAccessMode_Disable;
000026  2000              MOVS     r0,#0
000028  900c              STR      r0,[sp,#0x30]
;;;117        FSMC_NORSRAMInitStructure.FSMC_WaitSignalPolarity = FSMC_WaitSignalPolarity_Low;
00002a  900e              STR      r0,[sp,#0x38]
;;;118        FSMC_NORSRAMInitStructure.FSMC_WrapMode = FSMC_WrapMode_Disable;
00002c  900f              STR      r0,[sp,#0x3c]
;;;119        FSMC_NORSRAMInitStructure.FSMC_WaitSignalActive = FSMC_WaitSignalActive_BeforeWaitState;
00002e  9010              STR      r0,[sp,#0x40]
;;;120        FSMC_NORSRAMInitStructure.FSMC_WriteOperation = FSMC_WriteOperation_Enable;
000030  f44f5080          MOV      r0,#0x1000
000034  9011              STR      r0,[sp,#0x44]
;;;121        FSMC_NORSRAMInitStructure.FSMC_WaitSignal = FSMC_WaitSignal_Disable;
000036  2000              MOVS     r0,#0
000038  9012              STR      r0,[sp,#0x48]
;;;122        FSMC_NORSRAMInitStructure.FSMC_ExtendedMode = FSMC_ExtendedMode_Disable;
00003a  9013              STR      r0,[sp,#0x4c]
;;;123        FSMC_NORSRAMInitStructure.FSMC_WriteBurst = FSMC_WriteBurst_Disable;
00003c  9014              STR      r0,[sp,#0x50]
;;;124        FSMC_NORSRAMInitStructure.FSMC_ReadWriteTimingStruct = &p;
00003e  a801              ADD      r0,sp,#4
000040  9015              STR      r0,[sp,#0x54]
;;;125        FSMC_NORSRAMInitStructure.FSMC_WriteTimingStruct = &p; 
000042  9016              STR      r0,[sp,#0x58]
;;;126        
;;;127        FSMC_NORSRAMInit(&FSMC_NORSRAMInitStructure); 
000044  a808              ADD      r0,sp,#0x20
000046  f7fffffe          BL       FSMC_NORSRAMInit
;;;128        
;;;129        /* Enable FSMC Bank1_SRAM Bank */
;;;130        FSMC_NORSRAMCmd(FSMC_Bank1_NORSRAM1, ENABLE);  
00004a  2101              MOVS     r1,#1
00004c  2000              MOVS     r0,#0
00004e  f7fffffe          BL       FSMC_NORSRAMCmd
;;;131    }
000052  b017              ADD      sp,sp,#0x5c
000054  bd00              POP      {pc}
;;;132    
                          ENDP


                          AREA ||i.LCD_Fill||, CODE, READONLY, ALIGN=2

                  LCD_Fill PROC
;;;611    //color:要填充的颜色
;;;612    void LCD_Fill(u16 sx,u16 sy,u16 ex,u16 ey,u16 color)
000000  e92d5ff0          PUSH     {r4-r12,lr}
;;;613    {          
000004  4605              MOV      r5,r0
000006  460e              MOV      r6,r1
000008  4617              MOV      r7,r2
00000a  4698              MOV      r8,r3
00000c  f8dda028          LDR      r10,[sp,#0x28]
;;;614    	u16 i,j;
;;;615    	u16 xlen=0;
000010  f04f0b00          MOV      r11,#0
;;;616    	
;;;617    	xlen=ex-sx+1;	 
000014  1b78              SUBS     r0,r7,r5
000016  1c40              ADDS     r0,r0,#1
000018  fa1ffb80          UXTH     r11,r0
;;;618    	for(i=sy;i<=ey;i++)
00001c  4634              MOV      r4,r6
00001e  e014              B        |L9.74|
                  |L9.32|
;;;619    	{
;;;620    		SetCursor(sx,i);      				//设置光标位置 
000020  4621              MOV      r1,r4
000022  4628              MOV      r0,r5
000024  f7fffffe          BL       SetCursor
;;;621    		WriteComm(0x2c);
000028  202c              MOVS     r0,#0x2c
00002a  f7fffffe          BL       WriteComm
;;;622    	  for(j=0;j<xlen;j++) *(__IO u16 *) (Bank1_LCD_D) =color;	//显示颜色 	    
00002e  f04f0900          MOV      r9,#0
000032  e006              B        |L9.66|
                  |L9.52|
000034  4807              LDR      r0,|L9.84|
000036  f8a0a000          STRH     r10,[r0,#0]
00003a  f1090001          ADD      r0,r9,#1
00003e  fa1ff980          UXTH     r9,r0
                  |L9.66|
000042  45d9              CMP      r9,r11
000044  dbf6              BLT      |L9.52|
000046  1c60              ADDS     r0,r4,#1              ;618
000048  b284              UXTH     r4,r0                 ;618
                  |L9.74|
00004a  4544              CMP      r4,r8                 ;618
00004c  dde8              BLE      |L9.32|
;;;623    	} 
;;;624    }  
00004e  e8bd9ff0          POP      {r4-r12,pc}
;;;625    
                          ENDP

000052  0000              DCW      0x0000
                  |L9.84|
                          DCD      0x60020000

                          AREA ||i.LCD_GPIO_Config||, CODE, READONLY, ALIGN=2

                  LCD_GPIO_Config PROC
;;;34      */
;;;35      void LCD_GPIO_Config(void)
000000  b51c              PUSH     {r2-r4,lr}
;;;36     {
;;;37         GPIO_InitTypeDef GPIO_InitStructure;
;;;38         
;;;39         /* Enable the FSMC Clock */
;;;40         RCC_AHB3PeriphClockCmd(RCC_AHB3Periph_FSMC, ENABLE);     //初始化FSMC时钟
000002  2101              MOVS     r1,#1
000004  4608              MOV      r0,r1
000006  f7fffffe          BL       RCC_AHB3PeriphClockCmd
;;;41         
;;;42         /* config lcd gpio clock base on FSMC */
;;;43         RCC_AHB1PeriphClockCmd( RCC_AHB1Periph_GPIOD | RCC_AHB1Periph_GPIOE , ENABLE);   //初始化GPIO口时钟
00000a  2101              MOVS     r1,#1
00000c  2018              MOVS     r0,#0x18
00000e  f7fffffe          BL       RCC_AHB1PeriphClockCmd
;;;44         
;;;45         
;;;46         
;;;47         GPIO_InitStructure.GPIO_Pin = (3<<0)|(3<<4)|(0x1f<<7)|(3<<14);//PD0,1,4,5,7,8,9,10,11,14,15 AF OUT
000012  f64c70b3          MOV      r0,#0xcfb3
000016  9000              STR      r0,[sp,#0]
;;;48         GPIO_InitStructure.GPIO_Mode = GPIO_Mode_AF;//复用输出
000018  2002              MOVS     r0,#2
00001a  f88d0004          STRB     r0,[sp,#4]
;;;49         GPIO_InitStructure.GPIO_OType = GPIO_OType_PP;//推挽输出
00001e  2000              MOVS     r0,#0
000020  f88d0006          STRB     r0,[sp,#6]
;;;50         GPIO_InitStructure.GPIO_Speed = GPIO_Speed_100MHz;//100MHz
000024  2003              MOVS     r0,#3
000026  f88d0005          STRB     r0,[sp,#5]
;;;51         GPIO_InitStructure.GPIO_PuPd = GPIO_PuPd_UP;//上拉
00002a  2001              MOVS     r0,#1
00002c  f88d0007          STRB     r0,[sp,#7]
;;;52         GPIO_Init(GPIOD, &GPIO_InitStructure);//初始化  
000030  4669              MOV      r1,sp
000032  4843              LDR      r0,|L10.320|
000034  f7fffffe          BL       GPIO_Init
;;;53     	
;;;54         GPIO_InitStructure.GPIO_Pin = (0X1FF<<7);//PE7~15,AF OUT
000038  f64f7080          MOV      r0,#0xff80
00003c  9000              STR      r0,[sp,#0]
;;;55         GPIO_InitStructure.GPIO_Mode = GPIO_Mode_AF;//复用输出
00003e  2002              MOVS     r0,#2
000040  f88d0004          STRB     r0,[sp,#4]
;;;56         GPIO_InitStructure.GPIO_OType = GPIO_OType_PP;//推挽输出
000044  2000              MOVS     r0,#0
000046  f88d0006          STRB     r0,[sp,#6]
;;;57         GPIO_InitStructure.GPIO_Speed = GPIO_Speed_100MHz;//100MHz
00004a  2003              MOVS     r0,#3
00004c  f88d0005          STRB     r0,[sp,#5]
;;;58         GPIO_InitStructure.GPIO_PuPd = GPIO_PuPd_UP;//上拉
000050  2001              MOVS     r0,#1
000052  f88d0007          STRB     r0,[sp,#7]
;;;59         GPIO_Init(GPIOE, &GPIO_InitStructure);//初始化  
000056  4669              MOV      r1,sp
000058  483a              LDR      r0,|L10.324|
00005a  f7fffffe          BL       GPIO_Init
;;;60     
;;;61     
;;;62         GPIO_PinAFConfig(GPIOD,GPIO_PinSource0,GPIO_AF_FSMC);//PD0,AF12
00005e  220c              MOVS     r2,#0xc
000060  2100              MOVS     r1,#0
000062  4837              LDR      r0,|L10.320|
000064  f7fffffe          BL       GPIO_PinAFConfig
;;;63         GPIO_PinAFConfig(GPIOD,GPIO_PinSource1,GPIO_AF_FSMC);//PD1,AF12
000068  220c              MOVS     r2,#0xc
00006a  2101              MOVS     r1,#1
00006c  4834              LDR      r0,|L10.320|
00006e  f7fffffe          BL       GPIO_PinAFConfig
;;;64         GPIO_PinAFConfig(GPIOD,GPIO_PinSource4,GPIO_AF_FSMC);
000072  220c              MOVS     r2,#0xc
000074  2104              MOVS     r1,#4
000076  4832              LDR      r0,|L10.320|
000078  f7fffffe          BL       GPIO_PinAFConfig
;;;65         GPIO_PinAFConfig(GPIOD,GPIO_PinSource5,GPIO_AF_FSMC); 
00007c  220c              MOVS     r2,#0xc
00007e  2105              MOVS     r1,#5
000080  482f              LDR      r0,|L10.320|
000082  f7fffffe          BL       GPIO_PinAFConfig
;;;66     	GPIO_PinAFConfig(GPIOD,GPIO_PinSource7,GPIO_AF_FSMC);
000086  220c              MOVS     r2,#0xc
000088  2107              MOVS     r1,#7
00008a  482d              LDR      r0,|L10.320|
00008c  f7fffffe          BL       GPIO_PinAFConfig
;;;67         GPIO_PinAFConfig(GPIOD,GPIO_PinSource8,GPIO_AF_FSMC); 
000090  220c              MOVS     r2,#0xc
000092  2108              MOVS     r1,#8
000094  482a              LDR      r0,|L10.320|
000096  f7fffffe          BL       GPIO_PinAFConfig
;;;68         GPIO_PinAFConfig(GPIOD,GPIO_PinSource9,GPIO_AF_FSMC);
00009a  220c              MOVS     r2,#0xc
00009c  2109              MOVS     r1,#9
00009e  4828              LDR      r0,|L10.320|
0000a0  f7fffffe          BL       GPIO_PinAFConfig
;;;69         GPIO_PinAFConfig(GPIOD,GPIO_PinSource10,GPIO_AF_FSMC);    
0000a4  220c              MOVS     r2,#0xc
0000a6  210a              MOVS     r1,#0xa
0000a8  4825              LDR      r0,|L10.320|
0000aa  f7fffffe          BL       GPIO_PinAFConfig
;;;70     	GPIO_PinAFConfig(GPIOD,GPIO_PinSource11,GPIO_AF_FSMC);
0000ae  220c              MOVS     r2,#0xc
0000b0  210b              MOVS     r1,#0xb
0000b2  4823              LDR      r0,|L10.320|
0000b4  f7fffffe          BL       GPIO_PinAFConfig
;;;71         GPIO_PinAFConfig(GPIOD,GPIO_PinSource14,GPIO_AF_FSMC);
0000b8  220c              MOVS     r2,#0xc
0000ba  210e              MOVS     r1,#0xe
0000bc  4820              LDR      r0,|L10.320|
0000be  f7fffffe          BL       GPIO_PinAFConfig
;;;72         GPIO_PinAFConfig(GPIOD,GPIO_PinSource15,GPIO_AF_FSMC);//PD15,AF12
0000c2  220c              MOVS     r2,#0xc
0000c4  210f              MOVS     r1,#0xf
0000c6  481e              LDR      r0,|L10.320|
0000c8  f7fffffe          BL       GPIO_PinAFConfig
;;;73      
;;;74         GPIO_PinAFConfig(GPIOE,GPIO_PinSource7,GPIO_AF_FSMC);//PE7,AF12
0000cc  220c              MOVS     r2,#0xc
0000ce  2107              MOVS     r1,#7
0000d0  481c              LDR      r0,|L10.324|
0000d2  f7fffffe          BL       GPIO_PinAFConfig
;;;75         GPIO_PinAFConfig(GPIOE,GPIO_PinSource8,GPIO_AF_FSMC);
0000d6  220c              MOVS     r2,#0xc
0000d8  2108              MOVS     r1,#8
0000da  481a              LDR      r0,|L10.324|
0000dc  f7fffffe          BL       GPIO_PinAFConfig
;;;76         GPIO_PinAFConfig(GPIOE,GPIO_PinSource9,GPIO_AF_FSMC);
0000e0  220c              MOVS     r2,#0xc
0000e2  2109              MOVS     r1,#9
0000e4  4817              LDR      r0,|L10.324|
0000e6  f7fffffe          BL       GPIO_PinAFConfig
;;;77         GPIO_PinAFConfig(GPIOE,GPIO_PinSource10,GPIO_AF_FSMC);
0000ea  220c              MOVS     r2,#0xc
0000ec  210a              MOVS     r1,#0xa
0000ee  4815              LDR      r0,|L10.324|
0000f0  f7fffffe          BL       GPIO_PinAFConfig
;;;78         GPIO_PinAFConfig(GPIOE,GPIO_PinSource11,GPIO_AF_FSMC);
0000f4  220c              MOVS     r2,#0xc
0000f6  210b              MOVS     r1,#0xb
0000f8  4812              LDR      r0,|L10.324|
0000fa  f7fffffe          BL       GPIO_PinAFConfig
;;;79         GPIO_PinAFConfig(GPIOE,GPIO_PinSource12,GPIO_AF_FSMC);
0000fe  220c              MOVS     r2,#0xc
000100  4611              MOV      r1,r2
000102  4810              LDR      r0,|L10.324|
000104  f7fffffe          BL       GPIO_PinAFConfig
;;;80         GPIO_PinAFConfig(GPIOE,GPIO_PinSource13,GPIO_AF_FSMC);
000108  220c              MOVS     r2,#0xc
00010a  210d              MOVS     r1,#0xd
00010c  480d              LDR      r0,|L10.324|
00010e  f7fffffe          BL       GPIO_PinAFConfig
;;;81         GPIO_PinAFConfig(GPIOE,GPIO_PinSource14,GPIO_AF_FSMC);
000112  220c              MOVS     r2,#0xc
000114  210e              MOVS     r1,#0xe
000116  480b              LDR      r0,|L10.324|
000118  f7fffffe          BL       GPIO_PinAFConfig
;;;82         GPIO_PinAFConfig(GPIOE,GPIO_PinSource15,GPIO_AF_FSMC);//PE15,AF12
00011c  220c              MOVS     r2,#0xc
00011e  210f              MOVS     r1,#0xf
000120  4808              LDR      r0,|L10.324|
000122  f7fffffe          BL       GPIO_PinAFConfig
;;;83         /* tft control gpio init */	 
;;;84         GPIO_SetBits(GPIOD, GPIO_Pin_4);		 // RD = 1  
000126  2110              MOVS     r1,#0x10
000128  4805              LDR      r0,|L10.320|
00012a  f7fffffe          BL       GPIO_SetBits
;;;85         GPIO_SetBits(GPIOD, GPIO_Pin_5);		 // WR = 1 
00012e  2120              MOVS     r1,#0x20
000130  4803              LDR      r0,|L10.320|
000132  f7fffffe          BL       GPIO_SetBits
;;;86         GPIO_SetBits(GPIOD, GPIO_Pin_7);		 //	CS = 1 
000136  2180              MOVS     r1,#0x80
000138  4801              LDR      r0,|L10.320|
00013a  f7fffffe          BL       GPIO_SetBits
;;;87     		
;;;88     }
00013e  bd1c              POP      {r2-r4,pc}
;;;89     
                          ENDP

                  |L10.320|
                          DCD      0x40020c00
                  |L10.324|
                          DCD      0x40021000

                          AREA ||i.LCD_Pow||, CODE, READONLY, ALIGN=1

                  LCD_Pow PROC
;;;664    //返回值:m^n次方.
;;;665    u32 LCD_Pow(u8 m,u8 n)
000000  b510              PUSH     {r4,lr}
;;;666    {
000002  4602              MOV      r2,r0
;;;667    	u32 result=1;	 
000004  2001              MOVS     r0,#1
;;;668    	while(n--)result*=m;    
000006  e000              B        |L11.10|
                  |L11.8|
000008  4350              MULS     r0,r2,r0
                  |L11.10|
00000a  1e0b              SUBS     r3,r1,#0
00000c  f1a10401          SUB      r4,r1,#1
000010  b2e1              UXTB     r1,r4
000012  d1f9              BNE      |L11.8|
;;;669    	return result;
;;;670    }		
000014  bd10              POP      {r4,pc}
;;;671    
                          ENDP


                          AREA ||i.LCD_WR_REG||, CODE, READONLY, ALIGN=2

                  LCD_WR_REG PROC
;;;393    ******************************************/
;;;394    void LCD_WR_REG(u16 Index,u16 CongfigTemp)
000000  f04f42c0          MOV      r2,#0x60000000
;;;395    {
;;;396    	*(__IO u16 *) (Bank1_LCD_C) = Index;	
000004  8010              STRH     r0,[r2,#0]
;;;397    	*(__IO u16 *) (Bank1_LCD_D) = CongfigTemp;
000006  4a01              LDR      r2,|L12.12|
000008  8011              STRH     r1,[r2,#0]
;;;398    }
00000a  4770              BX       lr
;;;399    /************************************************
                          ENDP

                  |L12.12|
                          DCD      0x60020000

                          AREA ||i.Lcd_ColorBox||, CODE, READONLY, ALIGN=2

                  Lcd_ColorBox PROC
;;;454    ***********************************************/
;;;455    void Lcd_ColorBox(u16 xStart,u16 yStart,u16 xLong,u16 yLong,u16 Color)
000000  e92d47f0          PUSH     {r4-r10,lr}
;;;456    {
000004  4607              MOV      r7,r0
000006  460c              MOV      r4,r1
000008  4615              MOV      r5,r2
00000a  461e              MOV      r6,r3
00000c  f8dd9020          LDR      r9,[sp,#0x20]
;;;457    	u32 temp;
;;;458    
;;;459    	BlockWrite(xStart,xStart+xLong-1,yStart,yStart+yLong-1);
000010  19a0              ADDS     r0,r4,r6
000012  1e43              SUBS     r3,r0,#1
000014  1978              ADDS     r0,r7,r5
000016  1e41              SUBS     r1,r0,#1
000018  4622              MOV      r2,r4
00001a  4638              MOV      r0,r7
00001c  f7fffffe          BL       BlockWrite
;;;460    	for (temp=0; temp<xLong*yLong; temp++)
000020  f04f0800          MOV      r8,#0
000024  e004              B        |L13.48|
                  |L13.38|
;;;461    	{
;;;462    		*(__IO u16 *) (Bank1_LCD_D) = Color;
000026  4805              LDR      r0,|L13.60|
000028  f8a09000          STRH     r9,[r0,#0]
00002c  f1080801          ADD      r8,r8,#1              ;460
                  |L13.48|
000030  fb05f006          MUL      r0,r5,r6              ;460
000034  4540              CMP      r0,r8                 ;460
000036  d8f6              BHI      |L13.38|
;;;463    	}
;;;464    }
000038  e8bd87f0          POP      {r4-r10,pc}
;;;465    
                          ENDP

                  |L13.60|
                          DCD      0x60020000

                          AREA ||i.Lcd_Init||, CODE, READONLY, ALIGN=2

                          REQUIRE _printf_pre_padding
                          REQUIRE _printf_percent
                          REQUIRE _printf_flags
                          REQUIRE _printf_widthprec
                          REQUIRE _printf_x
                          REQUIRE _printf_longlong_hex
                  Lcd_Init PROC
;;;163    ***********************************************/
;;;164    void Lcd_Init(void)
000000  b538              PUSH     {r3-r5,lr}
;;;165    {	
;;;166    	  uint16_t id;
;;;167    		LCD_GPIO_Config();  // config GPIO
000002  f7fffffe          BL       LCD_GPIO_Config
;;;168    		Delay(10);         
000006  200a              MOVS     r0,#0xa
000008  f7fffffe          BL       Delay
;;;169    		LCD_FSMC_Config();  //config FSMC
00000c  f7fffffe          BL       LCD_FSMC_Config
;;;170    		Delay(20);
000010  2014              MOVS     r0,#0x14
000012  f7fffffe          BL       Delay
;;;171    	 
;;;172    		WriteComm(0xB0);
000016  20b0              MOVS     r0,#0xb0
000018  f7fffffe          BL       WriteComm
;;;173    		WriteData(0x04);
00001c  2004              MOVS     r0,#4
00001e  f7fffffe          BL       WriteData
;;;174    	  id=Read_ID();      //读id
000022  f7fffffe          BL       Read_ID
000026  4604              MOV      r4,r0
;;;175    	  printf("ID:0X%04X\r\n",id);
000028  4621              MOV      r1,r4
00002a  a0f1              ADR      r0,|L14.1008|
00002c  f7fffffe          BL       __2printf
;;;176    	  lcd_dev.id=id;
000030  48f2              LDR      r0,|L14.1020|
000032  8084              STRH     r4,[r0,#4]
;;;177    	
;;;178    //	if(lcd_dev.id==0x1529)
;;;179    	if(1)
;;;180    	{
;;;181    		WriteComm(0x3A);    
000034  203a              MOVS     r0,#0x3a
000036  f7fffffe          BL       WriteComm
;;;182    		WriteData(0x55);   
00003a  2055              MOVS     r0,#0x55
00003c  f7fffffe          BL       WriteData
;;;183    		 
;;;184    		WriteComm(0xB4);    //Frequence
000040  20b4              MOVS     r0,#0xb4
000042  f7fffffe          BL       WriteComm
;;;185    		WriteData(0x00); 
000046  2000              MOVS     r0,#0
000048  f7fffffe          BL       WriteData
;;;186    		 
;;;187    		WriteComm(0xC0);
00004c  20c0              MOVS     r0,#0xc0
00004e  f7fffffe          BL       WriteComm
;;;188    		WriteData(0x03);    //0013
000052  2003              MOVS     r0,#3
000054  f7fffffe          BL       WriteData
;;;189    		WriteData(0xDF);    //480
000058  20df              MOVS     r0,#0xdf
00005a  f7fffffe          BL       WriteData
;;;190    		WriteData(0x40);
00005e  2040              MOVS     r0,#0x40
000060  f7fffffe          BL       WriteData
;;;191    		WriteData(0x12);
000064  2012              MOVS     r0,#0x12
000066  f7fffffe          BL       WriteData
;;;192    		WriteData(0x00);
00006a  2000              MOVS     r0,#0
00006c  f7fffffe          BL       WriteData
;;;193    		WriteData(0x01);
000070  2001              MOVS     r0,#1
000072  f7fffffe          BL       WriteData
;;;194    		WriteData(0x00);
000076  2000              MOVS     r0,#0
000078  f7fffffe          BL       WriteData
;;;195    		WriteData(0x43);
00007c  2043              MOVS     r0,#0x43
00007e  f7fffffe          BL       WriteData
;;;196    		 
;;;197    		WriteComm(0xC1);//frame frequency
000082  20c1              MOVS     r0,#0xc1
000084  f7fffffe          BL       WriteComm
;;;198    		WriteData(0x05);//BCn,DIVn[1:0
000088  2005              MOVS     r0,#5
00008a  f7fffffe          BL       WriteData
;;;199    		WriteData(0x2f);//RTNn[4:0] 
00008e  202f              MOVS     r0,#0x2f
000090  f7fffffe          BL       WriteData
;;;200    		WriteData(0x08);// BPn[7:0]
000094  2008              MOVS     r0,#8
000096  f7fffffe          BL       WriteData
;;;201    		WriteData(0x08);// FPn[7:0]
00009a  2008              MOVS     r0,#8
00009c  f7fffffe          BL       WriteData
;;;202    		WriteData(0x00);
0000a0  2000              MOVS     r0,#0
0000a2  f7fffffe          BL       WriteData
;;;203    		 
;;;204    		 
;;;205    		 
;;;206    		WriteComm(0xC4);
0000a6  20c4              MOVS     r0,#0xc4
0000a8  f7fffffe          BL       WriteComm
;;;207    		WriteData(0x63);
0000ac  2063              MOVS     r0,#0x63
0000ae  f7fffffe          BL       WriteData
;;;208    		WriteData(0x00);
0000b2  2000              MOVS     r0,#0
0000b4  f7fffffe          BL       WriteData
;;;209    		WriteData(0x08);
0000b8  2008              MOVS     r0,#8
0000ba  f7fffffe          BL       WriteData
;;;210    		WriteData(0x08);
0000be  2008              MOVS     r0,#8
0000c0  f7fffffe          BL       WriteData
;;;211    		 
;;;212    		 WriteComm(0xC8);//Gamma
0000c4  20c8              MOVS     r0,#0xc8
0000c6  f7fffffe          BL       WriteComm
;;;213    		WriteData(0x06);
0000ca  2006              MOVS     r0,#6
0000cc  f7fffffe          BL       WriteData
;;;214    		WriteData(0x0c);
0000d0  200c              MOVS     r0,#0xc
0000d2  f7fffffe          BL       WriteData
;;;215    		WriteData(0x16);
0000d6  2016              MOVS     r0,#0x16
0000d8  f7fffffe          BL       WriteData
;;;216    		WriteData(0x24);//26
0000dc  2024              MOVS     r0,#0x24
0000de  f7fffffe          BL       WriteData
;;;217    		WriteData(0x30);//32 
0000e2  2030              MOVS     r0,#0x30
0000e4  f7fffffe          BL       WriteData
;;;218    		WriteData(0x48);
0000e8  2048              MOVS     r0,#0x48
0000ea  f7fffffe          BL       WriteData
;;;219    		WriteData(0x3d);
0000ee  203d              MOVS     r0,#0x3d
0000f0  f7fffffe          BL       WriteData
;;;220    		WriteData(0x28);
0000f4  2028              MOVS     r0,#0x28
0000f6  f7fffffe          BL       WriteData
;;;221    		WriteData(0x20);
0000fa  2020              MOVS     r0,#0x20
0000fc  f7fffffe          BL       WriteData
;;;222    		WriteData(0x14);
000100  2014              MOVS     r0,#0x14
000102  f7fffffe          BL       WriteData
;;;223    		WriteData(0x0c);
000106  200c              MOVS     r0,#0xc
000108  f7fffffe          BL       WriteData
;;;224    		WriteData(0x04);
00010c  2004              MOVS     r0,#4
00010e  f7fffffe          BL       WriteData
;;;225    		 
;;;226    		WriteData(0x06);
000112  2006              MOVS     r0,#6
000114  f7fffffe          BL       WriteData
;;;227    		WriteData(0x0c);
000118  200c              MOVS     r0,#0xc
00011a  f7fffffe          BL       WriteData
;;;228    		WriteData(0x16);
00011e  2016              MOVS     r0,#0x16
000120  f7fffffe          BL       WriteData
;;;229    		WriteData(0x24);
000124  2024              MOVS     r0,#0x24
000126  f7fffffe          BL       WriteData
;;;230    		WriteData(0x30);
00012a  2030              MOVS     r0,#0x30
00012c  f7fffffe          BL       WriteData
;;;231    		WriteData(0x48);
000130  2048              MOVS     r0,#0x48
000132  f7fffffe          BL       WriteData
;;;232    		WriteData(0x3d);
000136  203d              MOVS     r0,#0x3d
000138  f7fffffe          BL       WriteData
;;;233    		WriteData(0x28);
00013c  2028              MOVS     r0,#0x28
00013e  f7fffffe          BL       WriteData
;;;234    		WriteData(0x20);
000142  2020              MOVS     r0,#0x20
000144  f7fffffe          BL       WriteData
;;;235    		WriteData(0x14);
000148  2014              MOVS     r0,#0x14
00014a  f7fffffe          BL       WriteData
;;;236    		WriteData(0x0c);
00014e  200c              MOVS     r0,#0xc
000150  f7fffffe          BL       WriteData
;;;237    		WriteData(0x04);
000154  2004              MOVS     r0,#4
000156  f7fffffe          BL       WriteData
;;;238    		 
;;;239    		 
;;;240    		 
;;;241    		WriteComm(0xC9);//Gamma
00015a  20c9              MOVS     r0,#0xc9
00015c  f7fffffe          BL       WriteComm
;;;242    		WriteData(0x06);
000160  2006              MOVS     r0,#6
000162  f7fffffe          BL       WriteData
;;;243    		WriteData(0x0c);
000166  200c              MOVS     r0,#0xc
000168  f7fffffe          BL       WriteData
;;;244    		WriteData(0x16);
00016c  2016              MOVS     r0,#0x16
00016e  f7fffffe          BL       WriteData
;;;245    		WriteData(0x24);//26
000172  2024              MOVS     r0,#0x24
000174  f7fffffe          BL       WriteData
;;;246    		WriteData(0x30);//32 
000178  2030              MOVS     r0,#0x30
00017a  f7fffffe          BL       WriteData
;;;247    		WriteData(0x48);
00017e  2048              MOVS     r0,#0x48
000180  f7fffffe          BL       WriteData
;;;248    		WriteData(0x3d);
000184  203d              MOVS     r0,#0x3d
000186  f7fffffe          BL       WriteData
;;;249    		WriteData(0x28);
00018a  2028              MOVS     r0,#0x28
00018c  f7fffffe          BL       WriteData
;;;250    		WriteData(0x20);
000190  2020              MOVS     r0,#0x20
000192  f7fffffe          BL       WriteData
;;;251    		WriteData(0x14);
000196  2014              MOVS     r0,#0x14
000198  f7fffffe          BL       WriteData
;;;252    		WriteData(0x0c);
00019c  200c              MOVS     r0,#0xc
00019e  f7fffffe          BL       WriteData
;;;253    		WriteData(0x04);
0001a2  2004              MOVS     r0,#4
0001a4  f7fffffe          BL       WriteData
;;;254    		 
;;;255    		WriteData(0x06);
0001a8  2006              MOVS     r0,#6
0001aa  f7fffffe          BL       WriteData
;;;256    		WriteData(0x0c);
0001ae  200c              MOVS     r0,#0xc
0001b0  f7fffffe          BL       WriteData
;;;257    		WriteData(0x16);
0001b4  2016              MOVS     r0,#0x16
0001b6  f7fffffe          BL       WriteData
;;;258    		WriteData(0x24);
0001ba  2024              MOVS     r0,#0x24
0001bc  f7fffffe          BL       WriteData
;;;259    		WriteData(0x30);
0001c0  2030              MOVS     r0,#0x30
0001c2  f7fffffe          BL       WriteData
;;;260    		WriteData(0x48);
0001c6  2048              MOVS     r0,#0x48
0001c8  f7fffffe          BL       WriteData
;;;261    		WriteData(0x3d);
0001cc  203d              MOVS     r0,#0x3d
0001ce  f7fffffe          BL       WriteData
;;;262    		WriteData(0x28);
0001d2  2028              MOVS     r0,#0x28
0001d4  f7fffffe          BL       WriteData
;;;263    		WriteData(0x20);
0001d8  2020              MOVS     r0,#0x20
0001da  f7fffffe          BL       WriteData
;;;264    		WriteData(0x14);
0001de  2014              MOVS     r0,#0x14
0001e0  f7fffffe          BL       WriteData
;;;265    		WriteData(0x0c);
0001e4  200c              MOVS     r0,#0xc
0001e6  f7fffffe          BL       WriteData
;;;266    		WriteData(0x04);
0001ea  2004              MOVS     r0,#4
0001ec  f7fffffe          BL       WriteData
;;;267    		 
;;;268    		WriteComm(0xB6);
0001f0  20b6              MOVS     r0,#0xb6
0001f2  f7fffffe          BL       WriteComm
;;;269    		WriteData(0x00);
0001f6  2000              MOVS     r0,#0
0001f8  f7fffffe          BL       WriteData
;;;270    		 
;;;271    		WriteComm(0xCA);//Gamma
0001fc  20ca              MOVS     r0,#0xca
0001fe  f7fffffe          BL       WriteComm
;;;272    		WriteData(0x06);
000202  2006              MOVS     r0,#6
000204  f7fffffe          BL       WriteData
;;;273    		WriteData(0x0c);
000208  200c              MOVS     r0,#0xc
00020a  f7fffffe          BL       WriteData
;;;274    		WriteData(0x16);
00020e  2016              MOVS     r0,#0x16
000210  f7fffffe          BL       WriteData
;;;275    		WriteData(0x24);//26
000214  2024              MOVS     r0,#0x24
000216  f7fffffe          BL       WriteData
;;;276    		WriteData(0x30);//32 
00021a  2030              MOVS     r0,#0x30
00021c  f7fffffe          BL       WriteData
;;;277    		WriteData(0x48);
000220  2048              MOVS     r0,#0x48
000222  f7fffffe          BL       WriteData
;;;278    		WriteData(0x3d);
000226  203d              MOVS     r0,#0x3d
000228  f7fffffe          BL       WriteData
;;;279    		WriteData(0x28);
00022c  2028              MOVS     r0,#0x28
00022e  f7fffffe          BL       WriteData
;;;280    		WriteData(0x20);
000232  2020              MOVS     r0,#0x20
000234  f7fffffe          BL       WriteData
;;;281    		WriteData(0x14);
000238  2014              MOVS     r0,#0x14
00023a  f7fffffe          BL       WriteData
;;;282    		WriteData(0x0c);
00023e  200c              MOVS     r0,#0xc
000240  f7fffffe          BL       WriteData
;;;283    		WriteData(0x04);
000244  2004              MOVS     r0,#4
000246  f7fffffe          BL       WriteData
;;;284    		 
;;;285    		WriteData(0x06);
00024a  2006              MOVS     r0,#6
00024c  f7fffffe          BL       WriteData
;;;286    		WriteData(0x0c);
000250  200c              MOVS     r0,#0xc
000252  f7fffffe          BL       WriteData
;;;287    		WriteData(0x16);
000256  2016              MOVS     r0,#0x16
000258  f7fffffe          BL       WriteData
;;;288    		WriteData(0x24);
00025c  2024              MOVS     r0,#0x24
00025e  f7fffffe          BL       WriteData
;;;289    		WriteData(0x30);
000262  2030              MOVS     r0,#0x30
000264  f7fffffe          BL       WriteData
;;;290    		WriteData(0x48);
000268  2048              MOVS     r0,#0x48
00026a  f7fffffe          BL       WriteData
;;;291    		WriteData(0x3d);
00026e  203d              MOVS     r0,#0x3d
000270  f7fffffe          BL       WriteData
;;;292    		WriteData(0x28);
000274  2028              MOVS     r0,#0x28
000276  f7fffffe          BL       WriteData
;;;293    		WriteData(0x20);
00027a  2020              MOVS     r0,#0x20
00027c  f7fffffe          BL       WriteData
;;;294    		WriteData(0x14);
000280  2014              MOVS     r0,#0x14
000282  f7fffffe          BL       WriteData
;;;295    		WriteData(0x0c);
000286  200c              MOVS     r0,#0xc
000288  f7fffffe          BL       WriteData
;;;296    		WriteData(0x04);
00028c  2004              MOVS     r0,#4
00028e  f7fffffe          BL       WriteData
;;;297    		 
;;;298    		 
;;;299    		WriteComm(0xD0);
000292  20d0              MOVS     r0,#0xd0
000294  f7fffffe          BL       WriteComm
;;;300    		WriteData(0x95);
000298  2095              MOVS     r0,#0x95
00029a  f7fffffe          BL       WriteData
;;;301    		WriteData(0x06);
00029e  2006              MOVS     r0,#6
0002a0  f7fffffe          BL       WriteData
;;;302    		WriteData(0x08);
0002a4  2008              MOVS     r0,#8
0002a6  f7fffffe          BL       WriteData
;;;303    		WriteData(0x10);
0002aa  2010              MOVS     r0,#0x10
0002ac  f7fffffe          BL       WriteData
;;;304    		WriteData(0x3f);
0002b0  203f              MOVS     r0,#0x3f
0002b2  f7fffffe          BL       WriteData
;;;305    		 
;;;306    		 
;;;307    		WriteComm(0xD1);
0002b6  20d1              MOVS     r0,#0xd1
0002b8  f7fffffe          BL       WriteComm
;;;308    		WriteData(0x02);
0002bc  2002              MOVS     r0,#2
0002be  f7fffffe          BL       WriteData
;;;309    		WriteData(0x28);
0002c2  2028              MOVS     r0,#0x28
0002c4  f7fffffe          BL       WriteData
;;;310    		WriteData(0x28);
0002c8  2028              MOVS     r0,#0x28
0002ca  f7fffffe          BL       WriteData
;;;311    		WriteData(0x40);
0002ce  2040              MOVS     r0,#0x40
0002d0  f7fffffe          BL       WriteData
;;;312    		 
;;;313    		WriteComm(0xE1);    
0002d4  20e1              MOVS     r0,#0xe1
0002d6  f7fffffe          BL       WriteComm
;;;314    		WriteData(0x00);    
0002da  2000              MOVS     r0,#0
0002dc  f7fffffe          BL       WriteData
;;;315    		WriteData(0x00);    
0002e0  2000              MOVS     r0,#0
0002e2  f7fffffe          BL       WriteData
;;;316    		WriteData(0x00);    
0002e6  2000              MOVS     r0,#0
0002e8  f7fffffe          BL       WriteData
;;;317    		WriteData(0x00);    
0002ec  2000              MOVS     r0,#0
0002ee  f7fffffe          BL       WriteData
;;;318    		WriteData(0x00);   
0002f2  2000              MOVS     r0,#0
0002f4  f7fffffe          BL       WriteData
;;;319    		WriteData(0x00);   
0002f8  2000              MOVS     r0,#0
0002fa  f7fffffe          BL       WriteData
;;;320    		 
;;;321    		WriteComm(0xE2);    
0002fe  20e2              MOVS     r0,#0xe2
000300  f7fffffe          BL       WriteComm
;;;322    		WriteData(0x80);    
000304  2080              MOVS     r0,#0x80
000306  f7fffffe          BL       WriteData
;;;323    		 
;;;324    		WriteComm(0x2A);    
00030a  202a              MOVS     r0,#0x2a
00030c  f7fffffe          BL       WriteComm
;;;325    		WriteData(0x00);    
000310  2000              MOVS     r0,#0
000312  f7fffffe          BL       WriteData
;;;326    		WriteData(0x00);    
000316  2000              MOVS     r0,#0
000318  f7fffffe          BL       WriteData
;;;327    		WriteData(0x01);    
00031c  2001              MOVS     r0,#1
00031e  f7fffffe          BL       WriteData
;;;328    		WriteData(0x3F);    
000322  203f              MOVS     r0,#0x3f
000324  f7fffffe          BL       WriteData
;;;329    		 
;;;330    		WriteComm(0x2B);    
000328  202b              MOVS     r0,#0x2b
00032a  f7fffffe          BL       WriteComm
;;;331    		WriteData(0x00);    
00032e  2000              MOVS     r0,#0
000330  f7fffffe          BL       WriteData
;;;332    		WriteData(0x00);    
000334  2000              MOVS     r0,#0
000336  f7fffffe          BL       WriteData
;;;333    		WriteData(0x01);    
00033a  2001              MOVS     r0,#1
00033c  f7fffffe          BL       WriteData
;;;334    		WriteData(0xDF);    
000340  20df              MOVS     r0,#0xdf
000342  f7fffffe          BL       WriteData
;;;335    	
;;;336    		WriteComm(0x11);
000346  2011              MOVS     r0,#0x11
000348  f7fffffe          BL       WriteComm
;;;337    		Delay(120); 
00034c  2078              MOVS     r0,#0x78
00034e  f7fffffe          BL       Delay
;;;338    		WriteComm(0x29);
000352  2029              MOVS     r0,#0x29
000354  f7fffffe          BL       WriteComm
;;;339    		 
;;;340    		WriteComm(0xC1);//frame frequency
000358  20c1              MOVS     r0,#0xc1
00035a  f7fffffe          BL       WriteComm
;;;341    		WriteData(0x05);//BCn,DIVn[1:0
00035e  2005              MOVS     r0,#5
000360  f7fffffe          BL       WriteData
;;;342    		WriteData(0x2f);//RTNn[4:0] 
000364  202f              MOVS     r0,#0x2f
000366  f7fffffe          BL       WriteData
;;;343    		WriteData(0x08);// BPn[7:0]
00036a  2008              MOVS     r0,#8
00036c  f7fffffe          BL       WriteData
;;;344    		WriteData(0x08);// FPn[7:0]
000370  2008              MOVS     r0,#8
000372  f7fffffe          BL       WriteData
;;;345    		WriteData(0x00);
000376  2000              MOVS     r0,#0
000378  f7fffffe          BL       WriteData
;;;346    	}
;;;347    	else
;;;348    	{
;;;349    		;
;;;350    	}	//驱动结束
;;;351    	
;;;352        lcd_dev.dir=0;
00037c  2000              MOVS     r0,#0
00037e  491f              LDR      r1,|L14.1020|
000380  7188              STRB     r0,[r1,#6]
;;;353        if(lcd_dev.dir==0)  //竖屏
000382  4608              MOV      r0,r1
000384  7980              LDRB     r0,[r0,#6]  ; lcd_dev
000386  b950              CBNZ     r0,|L14.926|
;;;354    		{
;;;355    			set_mode(0);
000388  2000              MOVS     r0,#0
00038a  f7fffffe          BL       set_mode
;;;356    			lcd_dev.width=lcd_width;
00038e  f44f70a0          MOV      r0,#0x140
000392  491a              LDR      r1,|L14.1020|
000394  8108              STRH     r0,[r1,#8]
;;;357    			lcd_dev.heigth=lcd_heigth;
000396  f44f70f0          MOV      r0,#0x1e0
00039a  8148              STRH     r0,[r1,#0xa]
00039c  e009              B        |L14.946|
                  |L14.926|
;;;358    		}
;;;359        else 
;;;360    		{
;;;361    		  set_mode(1);
00039e  2001              MOVS     r0,#1
0003a0  f7fffffe          BL       set_mode
;;;362    			lcd_dev.width=lcd_heigth;
0003a4  f44f70f0          MOV      r0,#0x1e0
0003a8  4914              LDR      r1,|L14.1020|
0003aa  8108              STRH     r0,[r1,#8]
;;;363    			lcd_dev.heigth=lcd_width;
0003ac  f44f70a0          MOV      r0,#0x140
0003b0  8148              STRH     r0,[r1,#0xa]
                  |L14.946|
;;;364    		}
;;;365    		lcd_dev.b_color=White;
0003b2  f64f70ff          MOV      r0,#0xffff
0003b6  4911              LDR      r1,|L14.1020|
0003b8  8048              STRH     r0,[r1,#2]
;;;366    		lcd_dev.p_color=Red;
0003ba  f44f4078          MOV      r0,#0xf800
0003be  8008              STRH     r0,[r1,#0]
;;;367    		Lcd_ColorBox(0,0,320,480,lcd_dev.b_color);   //必须初始化一次
0003c0  4608              MOV      r0,r1
0003c2  8840              LDRH     r0,[r0,#2]  ; lcd_dev
0003c4  f44f73f0          MOV      r3,#0x1e0
0003c8  f44f72a0          MOV      r2,#0x140
0003cc  2100              MOVS     r1,#0
0003ce  9000              STR      r0,[sp,#0]
0003d0  4608              MOV      r0,r1
0003d2  f7fffffe          BL       Lcd_ColorBox
;;;368    		Lcd_ColorBox(0,0,320,480,White);
0003d6  f64f70ff          MOV      r0,#0xffff
0003da  f44f73f0          MOV      r3,#0x1e0
0003de  f44f72a0          MOV      r2,#0x140
0003e2  2100              MOVS     r1,#0
0003e4  9000              STR      r0,[sp,#0]
0003e6  4608              MOV      r0,r1
0003e8  f7fffffe          BL       Lcd_ColorBox
;;;369    
;;;370    }
0003ec  bd38              POP      {r3-r5,pc}
;;;371    
                          ENDP

0003ee  0000              DCW      0x0000
                  |L14.1008|
0003f0  49443a30          DCB      "ID:0X%04X\r\n",0
0003f4  58253034
0003f8  580d0a00
                  |L14.1020|
                          DCD      lcd_dev

                          AREA ||i.Lcd_WR_Start||, CODE, READONLY, ALIGN=1

                  Lcd_WR_Start PROC
;;;402    ************************************************/
;;;403    void Lcd_WR_Start(void)
000000  202c              MOVS     r0,#0x2c
;;;404    {
;;;405    *(__IO u16 *) (Bank1_LCD_C) = 0x2C;
000002  06c1              LSLS     r1,r0,#27
000004  8008              STRH     r0,[r1,#0]
;;;406    }
000006  4770              BX       lr
;;;407    
                          ENDP


                          AREA ||i.ReadID||, CODE, READONLY, ALIGN=2

                  ReadID PROC
;;;516     /*read id*/
;;;517    u16 ReadID(void)
000000  b510              PUSH     {r4,lr}
;;;518    {
;;;519    	  u16 id;
;;;520      	
;;;521    	  WriteComm(0xD3);
000002  20d3              MOVS     r0,#0xd3
000004  f7fffffe          BL       WriteComm
;;;522    	  id = *(__IO u16 *) (Bank1_LCD_D); 
000008  4806              LDR      r0,|L16.36|
00000a  8804              LDRH     r4,[r0,#0]
;;;523    		id = *(__IO u16 *) (Bank1_LCD_D);
00000c  8804              LDRH     r4,[r0,#0]
;;;524    		id = *(__IO u16 *) (Bank1_LCD_D);
00000e  8804              LDRH     r4,[r0,#0]
;;;525        id=id<<8;	
000010  f64f70ff          MOV      r0,#0xffff
000014  ea002404          AND      r4,r0,r4,LSL #8
;;;526    		id |= *(__IO u16 *) (Bank1_LCD_D);
000018  4802              LDR      r0,|L16.36|
00001a  8800              LDRH     r0,[r0,#0]
00001c  4304              ORRS     r4,r4,r0
;;;527    	  return id;
00001e  4620              MOV      r0,r4
;;;528    }
000020  bd10              POP      {r4,pc}
;;;529    
                          ENDP

000022  0000              DCW      0x0000
                  |L16.36|
                          DCD      0x60020000

                          AREA ||i.Read_ID||, CODE, READONLY, ALIGN=2

                  Read_ID PROC
;;;372    /*read id*/
;;;373    uint16_t Read_ID(void)
000000  b51c              PUSH     {r2-r4,lr}
;;;374    {
;;;375        uint16_t id;
;;;376    	volatile  uint16_t id1,id2;
;;;377      	WriteComm(0xBF);
000002  20bf              MOVS     r0,#0xbf
000004  f7fffffe          BL       WriteComm
;;;378        id= *(__IO uint16_t *) (Bank1_LCD_D);
000008  4809              LDR      r0,|L17.48|
00000a  8804              LDRH     r4,[r0,#0]
;;;379        id = *(__IO uint16_t *) (Bank1_LCD_D);
00000c  8804              LDRH     r4,[r0,#0]
;;;380        id = *(__IO uint16_t *) (Bank1_LCD_D);
00000e  8804              LDRH     r4,[r0,#0]
;;;381        id = *(__IO uint16_t *) (Bank1_LCD_D); 
000010  8804              LDRH     r4,[r0,#0]
;;;382        id1=*(__IO uint16_t *) (Bank1_LCD_D);
000012  8800              LDRH     r0,[r0,#0]
000014  9001              STR      r0,[sp,#4]
;;;383        id2 = *(__IO uint16_t *) (Bank1_LCD_D);
000016  4806              LDR      r0,|L17.48|
000018  8800              LDRH     r0,[r0,#0]
00001a  9000              STR      r0,[sp,#0]
;;;384    	  id=(id1<<8)+id2;
00001c  f8bd0000          LDRH     r0,[sp,#0]
000020  f8bd1004          LDRH     r1,[sp,#4]
000024  eb002001          ADD      r0,r0,r1,LSL #8
000028  b284              UXTH     r4,r0
;;;385    	  return id;
00002a  4620              MOV      r0,r4
;;;386    }
00002c  bd1c              POP      {r2-r4,pc}
;;;387    
                          ENDP

00002e  0000              DCW      0x0000
                  |L17.48|
                          DCD      0x60020000

                          AREA ||i.SetCursor||, CODE, READONLY, ALIGN=2

                  SetCursor PROC
;;;499    /*设置光标*/
;;;500    void SetCursor(uint16_t Xpos, uint16_t Ypos)
000000  b570              PUSH     {r4-r6,lr}
;;;501    {
000002  4604              MOV      r4,r0
000004  460d              MOV      r5,r1
;;;502    	/*Set X position*/
;;;503    	WriteComm(0x2a);
000006  202a              MOVS     r0,#0x2a
000008  f7fffffe          BL       WriteComm
;;;504    	WriteData(Xpos >> 8);
00000c  1220              ASRS     r0,r4,#8
00000e  f7fffffe          BL       WriteData
;;;505    	WriteData(Xpos & 0xFF);
000012  b2e0              UXTB     r0,r4
000014  f7fffffe          BL       WriteData
;;;506    	WriteData(lcd_width >> 8);
000018  2001              MOVS     r0,#1
00001a  f7fffffe          BL       WriteData
;;;507    	WriteData(lcd_width & 0xFF);
00001e  2040              MOVS     r0,#0x40
000020  f7fffffe          BL       WriteData
;;;508    	WriteComm(0x2b);
000024  202b              MOVS     r0,#0x2b
000026  f7fffffe          BL       WriteComm
;;;509    	WriteData(Ypos >> 8);
00002a  1228              ASRS     r0,r5,#8
00002c  f7fffffe          BL       WriteData
;;;510    	WriteData(Ypos & 0xFF);
000030  b2e8              UXTB     r0,r5
000032  f7fffffe          BL       WriteData
;;;511    	WriteData(lcd_dev.heigth >> 8);
000036  4905              LDR      r1,|L18.76|
000038  8949              LDRH     r1,[r1,#0xa]  ; lcd_dev
00003a  1208              ASRS     r0,r1,#8
00003c  f7fffffe          BL       WriteData
;;;512    	WriteData(lcd_dev.heigth& 0xFF);	
000040  4902              LDR      r1,|L18.76|
000042  7a88              LDRB     r0,[r1,#0xa]  ; lcd_dev
000044  f7fffffe          BL       WriteData
;;;513    }
000048  bd70              POP      {r4-r6,pc}
;;;514    
                          ENDP

00004a  0000              DCW      0x0000
                  |L18.76|
                          DCD      lcd_dev

                          AREA ||i.ShowChar||, CODE, READONLY, ALIGN=2

                  ShowChar PROC
;;;631    //mode:叠加方式(1)还是非叠加方式(0)
;;;632    void ShowChar(u16 x,u16 y,u8 num,u8 size,u8 mode)
000000  e92d4ff8          PUSH     {r3-r11,lr}
;;;633    {  							  
000004  4680              MOV      r8,r0
000006  460e              MOV      r6,r1
000008  4617              MOV      r7,r2
00000a  461c              MOV      r4,r3
;;;634      u8 temp,t1,t;
;;;635    	u16 y0=y;
00000c  46b3              MOV      r11,r6
;;;636    	u8 csize=(size/8+((size%8)?1:0))*(size/2);		//得到字体一个字符对应点阵集所占的字节数	
00000e  4620              MOV      r0,r4
000010  17e3              ASRS     r3,r4,#31
000012  eb047353          ADD      r3,r4,r3,LSR #29
000016  10db              ASRS     r3,r3,#3
000018  4621              MOV      r1,r4
00001a  ea4f7ce4          ASR      r12,r4,#31
00001e  eb047c5c          ADD      r12,r4,r12,LSR #29
000022  ea4f0cec          ASR      r12,r12,#3
000026  eba40ccc          SUB      r12,r4,r12,LSL #3
00002a  f1bc0f00          CMP      r12,#0
00002e  d002              BEQ      |L19.54|
000030  f04f0c01          MOV      r12,#1
000034  e001              B        |L19.58|
                  |L19.54|
000036  f04f0c00          MOV      r12,#0
                  |L19.58|
00003a  4463              ADD      r3,r3,r12
00003c  4622              MOV      r2,r4
00003e  eb047cd2          ADD      r12,r4,r2,LSR #31
000042  ea4f0c6c          ASR      r12,r12,#1
000046  fb03f30c          MUL      r3,r3,r12
00004a  b2db              UXTB     r3,r3
00004c  9300              STR      r3,[sp,#0]
;;;637     	num=num-' ';//得到偏移后的值（ASCII字库是从空格开始取模，所以-' '就是对应字符的字库）
00004e  f1a70020          SUB      r0,r7,#0x20
000052  b2c7              UXTB     r7,r0
;;;638    	for(t=0;t<csize;t++)
000054  2500              MOVS     r5,#0
000056  e054              B        |L19.258|
                  |L19.88|
;;;639    	{   
;;;640    		if(size==12)temp=asc2_1206[num][t]; 	 	//调用1206字体
000058  2c0c              CMP      r4,#0xc
00005a  d107              BNE      |L19.108|
00005c  eb070047          ADD      r0,r7,r7,LSL #1
000060  492a              LDR      r1,|L19.268|
000062  eb010080          ADD      r0,r1,r0,LSL #2
000066  f8109005          LDRB     r9,[r0,r5]
00006a  e013              B        |L19.148|
                  |L19.108|
;;;641    		else if(size==16)temp=asc2_1608[num][t];	//调用1608字体
00006c  2c10              CMP      r4,#0x10
00006e  d105              BNE      |L19.124|
000070  4827              LDR      r0,|L19.272|
000072  eb001007          ADD      r0,r0,r7,LSL #4
000076  f8109005          LDRB     r9,[r0,r5]
00007a  e00b              B        |L19.148|
                  |L19.124|
;;;642    		else if(size==24)temp=asc2_2412[num][t];	//调用2412字体
00007c  2c18              CMP      r4,#0x18
00007e  d107              BNE      |L19.144|
000080  eb0700c7          ADD      r0,r7,r7,LSL #3
000084  4923              LDR      r1,|L19.276|
000086  eb010080          ADD      r0,r1,r0,LSL #2
00008a  f8109005          LDRB     r9,[r0,r5]
00008e  e001              B        |L19.148|
                  |L19.144|
;;;643    		else return;								//没有的字库
;;;644    		for(t1=0;t1<8;t1++)
;;;645    		{			    
;;;646    			if(temp&0x80)DrawPoint(x,y,lcd_dev.p_color);
;;;647    			else if(mode==0) DrawPoint(x,y,lcd_dev.b_color);
;;;648    			temp<<=1;
;;;649    			y++;
;;;650    			if(y>=lcd_heigth)return;		//超区域了
;;;651    			if((y-y0)==size)
;;;652    			{
;;;653    				y=y0;
;;;654    				x++;
;;;655    				if(x>=lcd_width)return;	//超区域了
;;;656    				break;
;;;657    			}
;;;658    		}  	 
;;;659    	}  	    	   	 	  
;;;660    }  
000090  e8bd8ff8          POP      {r3-r11,pc}
                  |L19.148|
000094  f04f0a00          MOV      r10,#0                ;644
000098  e02d              B        |L19.246|
                  |L19.154|
00009a  f0090080          AND      r0,r9,#0x80           ;646
00009e  b130              CBZ      r0,|L19.174|
0000a0  481d              LDR      r0,|L19.280|
0000a2  8802              LDRH     r2,[r0,#0]            ;646  ; lcd_dev
0000a4  4631              MOV      r1,r6                 ;646
0000a6  4640              MOV      r0,r8                 ;646
0000a8  f7fffffe          BL       DrawPoint
0000ac  e007              B        |L19.190|
                  |L19.174|
0000ae  980a              LDR      r0,[sp,#0x28]         ;647
0000b0  b928              CBNZ     r0,|L19.190|
0000b2  4819              LDR      r0,|L19.280|
0000b4  8842              LDRH     r2,[r0,#2]            ;647  ; lcd_dev
0000b6  4631              MOV      r1,r6                 ;647
0000b8  4640              MOV      r0,r8                 ;647
0000ba  f7fffffe          BL       DrawPoint
                  |L19.190|
0000be  ea4f6049          LSL      r0,r9,#25             ;648
0000c2  ea4f6910          LSR      r9,r0,#24             ;648
0000c6  1c70              ADDS     r0,r6,#1              ;649
0000c8  b286              UXTH     r6,r0                 ;649
0000ca  f5b67ff0          CMP      r6,#0x1e0             ;650
0000ce  db00              BLT      |L19.210|
0000d0  e7de              B        |L19.144|
                  |L19.210|
0000d2  eba6000b          SUB      r0,r6,r11             ;651
0000d6  42a0              CMP      r0,r4                 ;651
0000d8  d109              BNE      |L19.238|
0000da  465e              MOV      r6,r11                ;653
0000dc  f1080001          ADD      r0,r8,#1              ;654
0000e0  fa1ff880          UXTH     r8,r0                 ;654
0000e4  f5b87fa0          CMP      r8,#0x140             ;655
0000e8  db00              BLT      |L19.236|
0000ea  e7d1              B        |L19.144|
                  |L19.236|
0000ec  e006              B        |L19.252|
                  |L19.238|
0000ee  f10a0001          ADD      r0,r10,#1             ;644
0000f2  f0000aff          AND      r10,r0,#0xff          ;644
                  |L19.246|
0000f6  f1ba0f08          CMP      r10,#8                ;644
0000fa  dbce              BLT      |L19.154|
                  |L19.252|
0000fc  bf00              NOP                            ;656
0000fe  1c68              ADDS     r0,r5,#1              ;638
000100  b2c5              UXTB     r5,r0                 ;638
                  |L19.258|
000102  9800              LDR      r0,[sp,#0]            ;638
000104  4285              CMP      r5,r0                 ;638
000106  dba7              BLT      |L19.88|
000108  bf00              NOP      
00010a  e7c1              B        |L19.144|
;;;661    
                          ENDP

                  |L19.268|
                          DCD      asc2_1206
                  |L19.272|
                          DCD      asc2_1608
                  |L19.276|
                          DCD      asc2_2412
                  |L19.280|
                          DCD      lcd_dev

                          AREA ||i.ShowNum||, CODE, READONLY, ALIGN=1

                  ShowNum PROC
;;;678    //num:数值(0~4294967295);	 
;;;679    void ShowNum(u16 x,u16 y,u32 num,u8 len,u8 size)
000000  e92d4fff          PUSH     {r0-r11,lr}
;;;680    {         	
000004  b081              SUB      sp,sp,#4
000006  4607              MOV      r7,r0
000008  4691              MOV      r9,r2
00000a  461e              MOV      r6,r3
00000c  9d0e              LDR      r5,[sp,#0x38]
;;;681    	u8 t,temp;
;;;682    	u8 enshow=0;						   
00000e  f04f0a00          MOV      r10,#0
;;;683    	for(t=0;t<len;t++)
000012  2400              MOVS     r4,#0
000014  e039              B        |L20.138|
                  |L20.22|
;;;684    	{
;;;685    		temp=(num/LCD_Pow(10,len-t-1))%10;
000016  1b30              SUBS     r0,r6,r4
000018  1e40              SUBS     r0,r0,#1
00001a  b2c1              UXTB     r1,r0
00001c  200a              MOVS     r0,#0xa
00001e  f7fffffe          BL       LCD_Pow
000022  fbb9f0f0          UDIV     r0,r9,r0
000026  210a              MOVS     r1,#0xa
000028  fbb0f2f1          UDIV     r2,r0,r1
00002c  fb010812          MLS      r8,r1,r2,r0
;;;686    		if(enshow==0&&t<(len-1))
000030  f1ba0f00          CMP      r10,#0
000034  d116              BNE      |L20.100|
000036  1e70              SUBS     r0,r6,#1
000038  42a0              CMP      r0,r4
00003a  dd13              BLE      |L20.100|
;;;687    		{
;;;688    			if(temp==0)
00003c  f1b80f00          CMP      r8,#0
000040  d10e              BNE      |L20.96|
;;;689    			{
;;;690    				ShowChar(x+(size/2)*t,y,' ',size,0);
000042  2000              MOVS     r0,#0
000044  46ab              MOV      r11,r5
000046  eb0571db          ADD      r1,r5,r11,LSR #31
00004a  1049              ASRS     r1,r1,#1
00004c  fb017104          MLA      r1,r1,r4,r7
000050  9000              STR      r0,[sp,#0]
000052  b288              UXTH     r0,r1
000054  462b              MOV      r3,r5
000056  2220              MOVS     r2,#0x20
000058  9902              LDR      r1,[sp,#8]
00005a  f7fffffe          BL       ShowChar
;;;691    				continue;
00005e  e012              B        |L20.134|
                  |L20.96|
;;;692    			}else enshow=1; 
000060  f04f0a01          MOV      r10,#1
                  |L20.100|
;;;693    		 	 
;;;694    		}
;;;695    	 	ShowChar(x+(size/2)*t,y,temp+'0',size,0); 
000064  2000              MOVS     r0,#0
000066  46ab              MOV      r11,r5
000068  eb0571db          ADD      r1,r5,r11,LSR #31
00006c  1049              ASRS     r1,r1,#1
00006e  fb017104          MLA      r1,r1,r4,r7
000072  9000              STR      r0,[sp,#0]
000074  b288              UXTH     r0,r1
000076  f1080130          ADD      r1,r8,#0x30
00007a  b2ca              UXTB     r2,r1
00007c  462b              MOV      r3,r5
00007e  9902              LDR      r1,[sp,#8]
000080  f7fffffe          BL       ShowChar
000084  bf00              NOP                            ;691
                  |L20.134|
000086  1c60              ADDS     r0,r4,#1              ;683
000088  b2c4              UXTB     r4,r0                 ;683
                  |L20.138|
00008a  42b4              CMP      r4,r6                 ;683
00008c  dbc3              BLT      |L20.22|
;;;696    	}
;;;697    } 
00008e  b005              ADD      sp,sp,#0x14
000090  e8bd8ff0          POP      {r4-r11,pc}
;;;698    //显示数字,高位为0,还是显示
                          ENDP


                          AREA ||i.ShowString||, CODE, READONLY, ALIGN=1

                  ShowString PROC
;;;733    //*p:字符串起始地址		  
;;;734    void ShowString(u16 x,u16 y,u16 width,u16 height,u8 size,u8 *p)
000000  e92d4ff8          PUSH     {r3-r11,lr}
;;;735    {         
000004  4604              MOV      r4,r0
000006  460d              MOV      r5,r1
000008  4690              MOV      r8,r2
00000a  4699              MOV      r9,r3
00000c  e9dd670a          LDRD     r6,r7,[sp,#0x28]
;;;736    	u8 x0=x;
000010  f0040aff          AND      r10,r4,#0xff
;;;737    	width+=x;
000014  eb080004          ADD      r0,r8,r4
000018  fa1ff880          UXTH     r8,r0
;;;738    	height+=y;
00001c  eb090005          ADD      r0,r9,r5
000020  fa1ff980          UXTH     r9,r0
;;;739        while((*p<='~')&&(*p>=' '))//判断是不是非法字符!
000024  e016              B        |L21.84|
                  |L21.38|
;;;740        {       
;;;741            if(x>=width){x=x0;y+=size;}
000026  4544              CMP      r4,r8
000028  db02              BLT      |L21.48|
00002a  4654              MOV      r4,r10
00002c  19a8              ADDS     r0,r5,r6
00002e  b285              UXTH     r5,r0
                  |L21.48|
;;;742            if(y>=height)break;//退出
000030  454d              CMP      r5,r9
000032  db00              BLT      |L21.54|
000034  e014              B        |L21.96|
                  |L21.54|
;;;743            ShowChar(x,y,*p,size,0);
000036  2000              MOVS     r0,#0
000038  9000              STR      r0,[sp,#0]
00003a  783a              LDRB     r2,[r7,#0]
00003c  4633              MOV      r3,r6
00003e  4629              MOV      r1,r5
000040  4620              MOV      r0,r4
000042  f7fffffe          BL       ShowChar
;;;744            x+=size/2;
000046  4630              MOV      r0,r6
000048  eb0671d0          ADD      r1,r6,r0,LSR #31
00004c  eb040161          ADD      r1,r4,r1,ASR #1
000050  b28c              UXTH     r4,r1
;;;745            p++;
000052  1c7f              ADDS     r7,r7,#1
                  |L21.84|
000054  7838              LDRB     r0,[r7,#0]            ;739
000056  287e              CMP      r0,#0x7e              ;739
000058  dc02              BGT      |L21.96|
00005a  7838              LDRB     r0,[r7,#0]            ;739
00005c  2820              CMP      r0,#0x20              ;739
00005e  dae2              BGE      |L21.38|
                  |L21.96|
000060  bf00              NOP                            ;742
;;;746        }  
;;;747    }
000062  e8bd8ff8          POP      {r3-r11,pc}
;;;748    
                          ENDP


                          AREA ||i.ShowxNum||, CODE, READONLY, ALIGN=1

                  ShowxNum PROC
;;;706    //[0]:0,非叠加显示;1,叠加显示.
;;;707    void ShowxNum(u16 x,u16 y,u32 num,u8 len,u8 size,u8 mode)
000000  e92d4fff          PUSH     {r0-r11,lr}
;;;708    {  
000004  b083              SUB      sp,sp,#0xc
000006  4606              MOV      r6,r0
000008  4692              MOV      r10,r2
00000a  461f              MOV      r7,r3
00000c  e9dd4810          LDRD     r4,r8,[sp,#0x40]
;;;709    	u8 t,temp;
;;;710    	u8 enshow=0;						   
000010  2000              MOVS     r0,#0
000012  9002              STR      r0,[sp,#8]
;;;711    	for(t=0;t<len;t++)
000014  2500              MOVS     r5,#0
000016  e04d              B        |L22.180|
                  |L22.24|
;;;712    	{
;;;713    		temp=(num/LCD_Pow(10,len-t-1))%10;
000018  1b78              SUBS     r0,r7,r5
00001a  1e40              SUBS     r0,r0,#1
00001c  b2c1              UXTB     r1,r0
00001e  200a              MOVS     r0,#0xa
000020  f7fffffe          BL       LCD_Pow
000024  fbbaf0f0          UDIV     r0,r10,r0
000028  210a              MOVS     r1,#0xa
00002a  fbb0f2f1          UDIV     r2,r0,r1
00002e  fb010912          MLS      r9,r1,r2,r0
;;;714    		if(enshow==0&&t<(len-1))
000032  9802              LDR      r0,[sp,#8]
000034  bb50              CBNZ     r0,|L22.140|
000036  1e78              SUBS     r0,r7,#1
000038  42a8              CMP      r0,r5
00003a  dd27              BLE      |L22.140|
;;;715    		{
;;;716    			if(temp==0)
00003c  f1b90f00          CMP      r9,#0
000040  d122              BNE      |L22.136|
;;;717    			{
;;;718    				if(mode&0X80) ShowChar(x+(size/2)*t,y,'0',size,mode&0X01);  
000042  f0080080          AND      r0,r8,#0x80
000046  b178              CBZ      r0,|L22.104|
000048  f0080001          AND      r0,r8,#1
00004c  46a3              MOV      r11,r4
00004e  eb0471db          ADD      r1,r4,r11,LSR #31
000052  1049              ASRS     r1,r1,#1
000054  fb016105          MLA      r1,r1,r5,r6
000058  9000              STR      r0,[sp,#0]
00005a  b288              UXTH     r0,r1
00005c  4623              MOV      r3,r4
00005e  2230              MOVS     r2,#0x30
000060  9904              LDR      r1,[sp,#0x10]
000062  f7fffffe          BL       ShowChar
000066  e00e              B        |L22.134|
                  |L22.104|
;;;719    				else ShowChar(x+(size/2)*t,y,' ',size,mode&0X01);  
000068  f0080001          AND      r0,r8,#1
00006c  46a3              MOV      r11,r4
00006e  eb0471db          ADD      r1,r4,r11,LSR #31
000072  1049              ASRS     r1,r1,#1
000074  fb016105          MLA      r1,r1,r5,r6
000078  9000              STR      r0,[sp,#0]
00007a  b288              UXTH     r0,r1
00007c  4623              MOV      r3,r4
00007e  2220              MOVS     r2,#0x20
000080  9904              LDR      r1,[sp,#0x10]
000082  f7fffffe          BL       ShowChar
                  |L22.134|
;;;720     				continue;
000086  e013              B        |L22.176|
                  |L22.136|
;;;721    			}else enshow=1; 
000088  2001              MOVS     r0,#1
00008a  9002              STR      r0,[sp,#8]
                  |L22.140|
;;;722    		 	 
;;;723    		}
;;;724    	   ShowChar(x+(size/2)*t,y,temp+'0',size,mode&0X01); 
00008c  f0080001          AND      r0,r8,#1
000090  46a3              MOV      r11,r4
000092  eb0471db          ADD      r1,r4,r11,LSR #31
000096  1049              ASRS     r1,r1,#1
000098  fb016105          MLA      r1,r1,r5,r6
00009c  9000              STR      r0,[sp,#0]
00009e  b288              UXTH     r0,r1
0000a0  f1090130          ADD      r1,r9,#0x30
0000a4  b2ca              UXTB     r2,r1
0000a6  4623              MOV      r3,r4
0000a8  9904              LDR      r1,[sp,#0x10]
0000aa  f7fffffe          BL       ShowChar
0000ae  bf00              NOP                            ;720
                  |L22.176|
0000b0  1c68              ADDS     r0,r5,#1              ;711
0000b2  b2c5              UXTB     r5,r0                 ;711
                  |L22.180|
0000b4  42bd              CMP      r5,r7                 ;711
0000b6  dbaf              BLT      |L22.24|
;;;725    	}
;;;726    } 
0000b8  b007              ADD      sp,sp,#0x1c
0000ba  e8bd8ff0          POP      {r4-r11,pc}
;;;727    
                          ENDP


                          AREA ||i.WriteComm||, CODE, READONLY, ALIGN=1

                  WriteComm PROC
;;;149    /*写命令和写数据函数*/
;;;150    static void WriteComm(u16 CMD)
000000  f04f41c0          MOV      r1,#0x60000000
;;;151    {			
;;;152    	*(__IO u16 *) (Bank1_LCD_C) = CMD;
000004  8008              STRH     r0,[r1,#0]
;;;153    }
000006  4770              BX       lr
;;;154    static void WriteData(u16 tem_data)
                          ENDP


                          AREA ||i.WriteData||, CODE, READONLY, ALIGN=2

                  WriteData PROC
;;;153    }
;;;154    static void WriteData(u16 tem_data)
000000  4901              LDR      r1,|L24.8|
;;;155    {			
;;;156    	*(__IO u16 *) (Bank1_LCD_D) = tem_data;
000002  8008              STRH     r0,[r1,#0]
;;;157    }
000004  4770              BX       lr
;;;158    
                          ENDP

000006  0000              DCW      0x0000
                  |L24.8|
                          DCD      0x60020000

                          AREA ||i.set_mode||, CODE, READONLY, ALIGN=1

                  set_mode PROC
;;;484    /*  控制横竖屏*/
;;;485    void set_mode(u8 mode)
000000  b510              PUSH     {r4,lr}
;;;486    {
000002  4604              MOV      r4,r0
;;;487    	if(!mode)
000004  b934              CBNZ     r4,|L25.20|
;;;488    	{
;;;489       	WriteComm(0x36); //Set_address_mode
000006  2036              MOVS     r0,#0x36
000008  f7fffffe          BL       WriteComm
;;;490     	  WriteData(0x00); //竖屏
00000c  2000              MOVS     r0,#0
00000e  f7fffffe          BL       WriteData
000012  e005              B        |L25.32|
                  |L25.20|
;;;491    	}
;;;492    	else
;;;493    	{
;;;494     	  WriteComm(0x36); //Set_address_mode
000014  2036              MOVS     r0,#0x36
000016  f7fffffe          BL       WriteComm
;;;495     	  WriteData(0x60); //横屏	  
00001a  2060              MOVS     r0,#0x60
00001c  f7fffffe          BL       WriteData
                  |L25.32|
;;;496    	}
;;;497    }
000020  bd10              POP      {r4,pc}
;;;498    
                          ENDP


                          AREA ||i.ssd1289_GetPoint||, CODE, READONLY, ALIGN=2

                  ssd1289_GetPoint PROC
;;;133    
;;;134    u16 ssd1289_GetPoint(u16 x,u8 y)
000000  b510              PUSH     {r4,lr}
;;;135    {
000002  4602              MOV      r2,r0
;;;136    	 u16 a = 0;
000004  2000              MOVS     r0,#0
;;;137    	*(__IO u16 *) (Bank1_LCD_C) = 0x2a;	
000006  232a              MOVS     r3,#0x2a
000008  f04f44c0          MOV      r4,#0x60000000
00000c  8023              STRH     r3,[r4,#0]
;;;138    	*(__IO u16 *) (Bank1_LCD_D) = (x>>8);
00000e  1213              ASRS     r3,r2,#8
000010  4c09              LDR      r4,|L26.56|
000012  8023              STRH     r3,[r4,#0]
;;;139    	*(__IO u16 *) (Bank1_LCD_D) = (x&0xff);	
000014  b2d3              UXTB     r3,r2
000016  8023              STRH     r3,[r4,#0]
;;;140    	*(__IO u16 *) (Bank1_LCD_C) = 0x2b;	
000018  232b              MOVS     r3,#0x2b
00001a  075c              LSLS     r4,r3,#29
00001c  8023              STRH     r3,[r4,#0]
;;;141    	*(__IO u16 *) (Bank1_LCD_D) = (y>>8);
00001e  120b              ASRS     r3,r1,#8
000020  4c05              LDR      r4,|L26.56|
000022  8023              STRH     r3,[r4,#0]
;;;142    	*(__IO u16 *) (Bank1_LCD_D) = (y&0xff);
000024  b2cb              UXTB     r3,r1
000026  8023              STRH     r3,[r4,#0]
;;;143    	*(__IO u16 *) (Bank1_LCD_C) = 0x2e;
000028  232e              MOVS     r3,#0x2e
00002a  f04f44c0          MOV      r4,#0x60000000
00002e  8023              STRH     r3,[r4,#0]
;;;144    	 a = *(__IO u16 *) (Bank1_LCD_D); 
000030  4b01              LDR      r3,|L26.56|
000032  8818              LDRH     r0,[r3,#0]
;;;145    	 a = *(__IO u16 *) (Bank1_LCD_D); 
000034  8818              LDRH     r0,[r3,#0]
;;;146       return(a);	  
;;;147    }
000036  bd10              POP      {r4,pc}
;;;148    
                          ENDP

                  |L26.56|
                          DCD      0x60020000

                          AREA ||.bss||, DATA, NOINIT, ALIGN=1

                  lcd_dev
                          %        12

                          AREA ||.constdata||, DATA, READONLY, ALIGN=0

                  asc2_1206
000000  00000000          DCB      0x00,0x00,0x00,0x00
000004  00000000          DCB      0x00,0x00,0x00,0x00
000008  00000000          DCB      0x00,0x00,0x00,0x00
00000c  00000000          DCB      0x00,0x00,0x00,0x00
000010  3f400000          DCB      0x3f,0x40,0x00,0x00
000014  00000000          DCB      0x00,0x00,0x00,0x00
000018  00003000          DCB      0x00,0x00,0x30,0x00
00001c  40003000          DCB      0x40,0x00,0x30,0x00
000020  40000000          DCB      0x40,0x00,0x00,0x00
000024  09000bc0          DCB      0x09,0x00,0x0b,0xc0
000028  3d000bc0          DCB      0x3d,0x00,0x0b,0xc0
00002c  3d000900          DCB      0x3d,0x00,0x09,0x00
000030  18c02440          DCB      0x18,0xc0,0x24,0x40
000034  7fe02240          DCB      0x7f,0xe0,0x22,0x40
000038  31800000          DCB      0x31,0x80,0x00,0x00
00003c  180024c0          DCB      0x18,0x00,0x24,0xc0
000040  1b000d80          DCB      0x1b,0x00,0x0d,0x80
000044  32400180          DCB      0x32,0x40,0x01,0x80
000048  03801c40          DCB      0x03,0x80,0x1c,0x40
00004c  27401c80          DCB      0x27,0x40,0x1c,0x80
000050  07400040          DCB      0x07,0x40,0x00,0x40
000054  10006000          DCB      0x10,0x00,0x60,0x00
000058  00000000          DCB      0x00,0x00,0x00,0x00
00005c  00000000          DCB      0x00,0x00,0x00,0x00
000060  00000000          DCB      0x00,0x00,0x00,0x00
000064  00001f80          DCB      0x00,0x00,0x1f,0x80
000068  20404020          DCB      0x20,0x40,0x40,0x20
00006c  00004020          DCB      0x00,0x00,0x40,0x20
000070  20401f80          DCB      0x20,0x40,0x1f,0x80
000074  00000000          DCB      0x00,0x00,0x00,0x00
000078  09000600          DCB      0x09,0x00,0x06,0x00
00007c  1f800600          DCB      0x1f,0x80,0x06,0x00
000080  09000000          DCB      0x09,0x00,0x00,0x00
000084  04000400          DCB      0x04,0x00,0x04,0x00
000088  3f800400          DCB      0x3f,0x80,0x04,0x00
00008c  04000000          DCB      0x04,0x00,0x00,0x00
000090  00100060          DCB      0x00,0x10,0x00,0x60
000094  00000000          DCB      0x00,0x00,0x00,0x00
000098  00000000          DCB      0x00,0x00,0x00,0x00
00009c  04000400          DCB      0x04,0x00,0x04,0x00
0000a0  04000400          DCB      0x04,0x00,0x04,0x00
0000a4  04000000          DCB      0x04,0x00,0x00,0x00
0000a8  00000040          DCB      0x00,0x00,0x00,0x40
0000ac  00000000          DCB      0x00,0x00,0x00,0x00
0000b0  00000000          DCB      0x00,0x00,0x00,0x00
0000b4  002001c0          DCB      0x00,0x20,0x01,0xc0
0000b8  06003800          DCB      0x06,0x00,0x38,0x00
0000bc  40000000          DCB      0x40,0x00,0x00,0x00
0000c0  1f802040          DCB      0x1f,0x80,0x20,0x40
0000c4  20402040          DCB      0x20,0x40,0x20,0x40
0000c8  1f800000          DCB      0x1f,0x80,0x00,0x00
0000cc  00001040          DCB      0x00,0x00,0x10,0x40
0000d0  3fc00040          DCB      0x3f,0xc0,0x00,0x40
0000d4  00000000          DCB      0x00,0x00,0x00,0x00
0000d8  18c02140          DCB      0x18,0xc0,0x21,0x40
0000dc  22402440          DCB      0x22,0x40,0x24,0x40
0000e0  18400000          DCB      0x18,0x40,0x00,0x00
0000e4  10802040          DCB      0x10,0x80,0x20,0x40
0000e8  24402440          DCB      0x24,0x40,0x24,0x40
0000ec  1b800000          DCB      0x1b,0x80,0x00,0x00
0000f0  02000d00          DCB      0x02,0x00,0x0d,0x00
0000f4  11003fc0          DCB      0x11,0x00,0x3f,0xc0
0000f8  01400000          DCB      0x01,0x40,0x00,0x00
0000fc  3c802440          DCB      0x3c,0x80,0x24,0x40
000100  24402440          DCB      0x24,0x40,0x24,0x40
000104  23800000          DCB      0x23,0x80,0x00,0x00
000108  1f802440          DCB      0x1f,0x80,0x24,0x40
00010c  24403440          DCB      0x24,0x40,0x34,0x40
000110  03800000          DCB      0x03,0x80,0x00,0x00
000114  30002000          DCB      0x30,0x00,0x20,0x00
000118  27c03800          DCB      0x27,0xc0,0x38,0x00
00011c  20000000          DCB      0x20,0x00,0x00,0x00
000120  1b802440          DCB      0x1b,0x80,0x24,0x40
000124  24402440          DCB      0x24,0x40,0x24,0x40
000128  1b800000          DCB      0x1b,0x80,0x00,0x00
00012c  1c0022c0          DCB      0x1c,0x00,0x22,0xc0
000130  22402240          DCB      0x22,0x40,0x22,0x40
000134  1f800000          DCB      0x1f,0x80,0x00,0x00
000138  00000000          DCB      0x00,0x00,0x00,0x00
00013c  08400000          DCB      0x08,0x40,0x00,0x00
000140  00000000          DCB      0x00,0x00,0x00,0x00
000144  00000000          DCB      0x00,0x00,0x00,0x00
000148  04600000          DCB      0x04,0x60,0x00,0x00
00014c  00000000          DCB      0x00,0x00,0x00,0x00
000150  00000400          DCB      0x00,0x00,0x04,0x00
000154  0a001100          DCB      0x0a,0x00,0x11,0x00
000158  20804040          DCB      0x20,0x80,0x40,0x40
00015c  09000900          DCB      0x09,0x00,0x09,0x00
000160  09000900          DCB      0x09,0x00,0x09,0x00
000164  09000000          DCB      0x09,0x00,0x00,0x00
000168  00004040          DCB      0x00,0x00,0x40,0x40
00016c  20801100          DCB      0x20,0x80,0x11,0x00
000170  0a000400          DCB      0x0a,0x00,0x04,0x00
000174  18002000          DCB      0x18,0x00,0x20,0x00
000178  23402400          DCB      0x23,0x40,0x24,0x00
00017c  18000000          DCB      0x18,0x00,0x00,0x00
000180  1f802040          DCB      0x1f,0x80,0x20,0x40
000184  27402940          DCB      0x27,0x40,0x29,0x40
000188  1f400000          DCB      0x1f,0x40,0x00,0x00
00018c  004007c0          DCB      0x00,0x40,0x07,0xc0
000190  39000f00          DCB      0x39,0x00,0x0f,0x00
000194  01c00040          DCB      0x01,0xc0,0x00,0x40
000198  20403fc0          DCB      0x20,0x40,0x3f,0xc0
00019c  24402440          DCB      0x24,0x40,0x24,0x40
0001a0  1b800000          DCB      0x1b,0x80,0x00,0x00
0001a4  1f802040          DCB      0x1f,0x80,0x20,0x40
0001a8  20402040          DCB      0x20,0x40,0x20,0x40
0001ac  30800000          DCB      0x30,0x80,0x00,0x00
0001b0  20403fc0          DCB      0x20,0x40,0x3f,0xc0
0001b4  20402040          DCB      0x20,0x40,0x20,0x40
0001b8  1f800000          DCB      0x1f,0x80,0x00,0x00
0001bc  20403fc0          DCB      0x20,0x40,0x3f,0xc0
0001c0  24402e40          DCB      0x24,0x40,0x2e,0x40
0001c4  30c00000          DCB      0x30,0xc0,0x00,0x00
0001c8  20403fc0          DCB      0x20,0x40,0x3f,0xc0
0001cc  24402e00          DCB      0x24,0x40,0x2e,0x00
0001d0  30000000          DCB      0x30,0x00,0x00,0x00
0001d4  0f001080          DCB      0x0f,0x00,0x10,0x80
0001d8  20402240          DCB      0x20,0x40,0x22,0x40
0001dc  33800200          DCB      0x33,0x80,0x02,0x00
0001e0  20403fc0          DCB      0x20,0x40,0x3f,0xc0
0001e4  04000400          DCB      0x04,0x00,0x04,0x00
0001e8  3fc02040          DCB      0x3f,0xc0,0x20,0x40
0001ec  20402040          DCB      0x20,0x40,0x20,0x40
0001f0  3fc02040          DCB      0x3f,0xc0,0x20,0x40
0001f4  20400000          DCB      0x20,0x40,0x00,0x00
0001f8  00602020          DCB      0x00,0x60,0x20,0x20
0001fc  20203fc0          DCB      0x20,0x20,0x3f,0xc0
000200  20002000          DCB      0x20,0x00,0x20,0x00
000204  20403fc0          DCB      0x20,0x40,0x3f,0xc0
000208  24400b00          DCB      0x24,0x40,0x0b,0x00
00020c  30c02040          DCB      0x30,0xc0,0x20,0x40
000210  20403fc0          DCB      0x20,0x40,0x3f,0xc0
000214  20400040          DCB      0x20,0x40,0x00,0x40
000218  004000c0          DCB      0x00,0x40,0x00,0xc0
00021c  3fc03c00          DCB      0x3f,0xc0,0x3c,0x00
000220  03c03c00          DCB      0x03,0xc0,0x3c,0x00
000224  3fc00000          DCB      0x3f,0xc0,0x00,0x00
000228  20403fc0          DCB      0x20,0x40,0x3f,0xc0
00022c  0c402300          DCB      0x0c,0x40,0x23,0x00
000230  3fc02000          DCB      0x3f,0xc0,0x20,0x00
000234  1f802040          DCB      0x1f,0x80,0x20,0x40
000238  20402040          DCB      0x20,0x40,0x20,0x40
00023c  1f800000          DCB      0x1f,0x80,0x00,0x00
000240  20403fc0          DCB      0x20,0x40,0x3f,0xc0
000244  24402400          DCB      0x24,0x40,0x24,0x00
000248  18000000          DCB      0x18,0x00,0x00,0x00
00024c  1f802140          DCB      0x1f,0x80,0x21,0x40
000250  214020e0          DCB      0x21,0x40,0x20,0xe0
000254  1fa00000          DCB      0x1f,0xa0,0x00,0x00
000258  20403fc0          DCB      0x20,0x40,0x3f,0xc0
00025c  24402600          DCB      0x24,0x40,0x26,0x00
000260  19c00040          DCB      0x19,0xc0,0x00,0x40
000264  18c02440          DCB      0x18,0xc0,0x24,0x40
000268  24402240          DCB      0x24,0x40,0x22,0x40
00026c  31800000          DCB      0x31,0x80,0x00,0x00
000270  30002040          DCB      0x30,0x00,0x20,0x40
000274  3fc02040          DCB      0x3f,0xc0,0x20,0x40
000278  30000000          DCB      0x30,0x00,0x00,0x00
00027c  20003f80          DCB      0x20,0x00,0x3f,0x80
000280  00400040          DCB      0x00,0x40,0x00,0x40
000284  3f802000          DCB      0x3f,0x80,0x20,0x00
000288  20003e00          DCB      0x20,0x00,0x3e,0x00
00028c  01c00700          DCB      0x01,0xc0,0x07,0x00
000290  38002000          DCB      0x38,0x00,0x20,0x00
000294  380007c0          DCB      0x38,0x00,0x07,0xc0
000298  3c0007c0          DCB      0x3c,0x00,0x07,0xc0
00029c  38000000          DCB      0x38,0x00,0x00,0x00
0002a0  204039c0          DCB      0x20,0x40,0x39,0xc0
0002a4  060039c0          DCB      0x06,0x00,0x39,0xc0
0002a8  20400000          DCB      0x20,0x40,0x00,0x00
0002ac  20003840          DCB      0x20,0x00,0x38,0x40
0002b0  07c03840          DCB      0x07,0xc0,0x38,0x40
0002b4  20000000          DCB      0x20,0x00,0x00,0x00
0002b8  304021c0          DCB      0x30,0x40,0x21,0xc0
0002bc  26403840          DCB      0x26,0x40,0x38,0x40
0002c0  20c00000          DCB      0x20,0xc0,0x00,0x00
0002c4  00000000          DCB      0x00,0x00,0x00,0x00
0002c8  7fe04020          DCB      0x7f,0xe0,0x40,0x20
0002cc  40200000          DCB      0x40,0x20,0x00,0x00
0002d0  00007000          DCB      0x00,0x00,0x70,0x00
0002d4  0c000380          DCB      0x0c,0x00,0x03,0x80
0002d8  00400000          DCB      0x00,0x40,0x00,0x00
0002dc  00004020          DCB      0x00,0x00,0x40,0x20
0002e0  40207fe0          DCB      0x40,0x20,0x7f,0xe0
0002e4  00000000          DCB      0x00,0x00,0x00,0x00
0002e8  00002000          DCB      0x00,0x00,0x20,0x00
0002ec  40002000          DCB      0x40,0x00,0x20,0x00
0002f0  00000000          DCB      0x00,0x00,0x00,0x00
0002f4  00100010          DCB      0x00,0x10,0x00,0x10
0002f8  00100010          DCB      0x00,0x10,0x00,0x10
0002fc  00100010          DCB      0x00,0x10,0x00,0x10
000300  00000000          DCB      0x00,0x00,0x00,0x00
000304  40000000          DCB      0x40,0x00,0x00,0x00
000308  00000000          DCB      0x00,0x00,0x00,0x00
00030c  00000280          DCB      0x00,0x00,0x02,0x80
000310  05400540          DCB      0x05,0x40,0x05,0x40
000314  03c00040          DCB      0x03,0xc0,0x00,0x40
000318  20003fc0          DCB      0x20,0x00,0x3f,0xc0
00031c  04400440          DCB      0x04,0x40,0x04,0x40
000320  03800000          DCB      0x03,0x80,0x00,0x00
000324  00000380          DCB      0x00,0x00,0x03,0x80
000328  04400440          DCB      0x04,0x40,0x04,0x40
00032c  06400000          DCB      0x06,0x40,0x00,0x00
000330  00000380          DCB      0x00,0x00,0x03,0x80
000334  04402440          DCB      0x04,0x40,0x24,0x40
000338  3fc00040          DCB      0x3f,0xc0,0x00,0x40
00033c  00000380          DCB      0x00,0x00,0x03,0x80
000340  05400540          DCB      0x05,0x40,0x05,0x40
000344  03400000          DCB      0x03,0x40,0x00,0x00
000348  00000440          DCB      0x00,0x00,0x04,0x40
00034c  1fc02440          DCB      0x1f,0xc0,0x24,0x40
000350  24402000          DCB      0x24,0x40,0x20,0x00
000354  000002e0          DCB      0x00,0x00,0x02,0xe0
000358  05500550          DCB      0x05,0x50,0x05,0x50
00035c  06500420          DCB      0x06,0x50,0x04,0x20
000360  20403fc0          DCB      0x20,0x40,0x3f,0xc0
000364  04400400          DCB      0x04,0x40,0x04,0x00
000368  03c00040          DCB      0x03,0xc0,0x00,0x40
00036c  00000440          DCB      0x00,0x00,0x04,0x40
000370  27c00040          DCB      0x27,0xc0,0x00,0x40
000374  00000000          DCB      0x00,0x00,0x00,0x00
000378  00100010          DCB      0x00,0x10,0x00,0x10
00037c  041027e0          DCB      0x04,0x10,0x27,0xe0
000380  00000000          DCB      0x00,0x00,0x00,0x00
000384  20403fc0          DCB      0x20,0x40,0x3f,0xc0
000388  01400700          DCB      0x01,0x40,0x07,0x00
00038c  04c00440          DCB      0x04,0xc0,0x04,0x40
000390  20402040          DCB      0x20,0x40,0x20,0x40
000394  3fc00040          DCB      0x3f,0xc0,0x00,0x40
000398  00400000          DCB      0x00,0x40,0x00,0x00
00039c  07c00400          DCB      0x07,0xc0,0x04,0x00
0003a0  07c00400          DCB      0x07,0xc0,0x04,0x00
0003a4  03c00000          DCB      0x03,0xc0,0x00,0x00
0003a8  044007c0          DCB      0x04,0x40,0x07,0xc0
0003ac  04400400          DCB      0x04,0x40,0x04,0x00
0003b0  03c00040          DCB      0x03,0xc0,0x00,0x40
0003b4  00000380          DCB      0x00,0x00,0x03,0x80
0003b8  04400440          DCB      0x04,0x40,0x04,0x40
0003bc  03800000          DCB      0x03,0x80,0x00,0x00
0003c0  041007f0          DCB      0x04,0x10,0x07,0xf0
0003c4  04500440          DCB      0x04,0x50,0x04,0x40
0003c8  03800000          DCB      0x03,0x80,0x00,0x00
0003cc  00000380          DCB      0x00,0x00,0x03,0x80
0003d0  04400450          DCB      0x04,0x40,0x04,0x50
0003d4  07f00010          DCB      0x07,0xf0,0x00,0x10
0003d8  044007c0          DCB      0x04,0x40,0x07,0xc0
0003dc  02400400          DCB      0x02,0x40,0x04,0x00
0003e0  04000000          DCB      0x04,0x00,0x00,0x00
0003e4  00000640          DCB      0x00,0x00,0x06,0x40
0003e8  05400540          DCB      0x05,0x40,0x05,0x40
0003ec  04c00000          DCB      0x04,0xc0,0x00,0x00
0003f0  00000400          DCB      0x00,0x00,0x04,0x00
0003f4  1f800440          DCB      0x1f,0x80,0x04,0x40
0003f8  00400000          DCB      0x00,0x40,0x00,0x00
0003fc  04000780          DCB      0x04,0x00,0x07,0x80
000400  00400440          DCB      0x00,0x40,0x04,0x40
000404  07c00040          DCB      0x07,0xc0,0x00,0x40
000408  04000700          DCB      0x04,0x00,0x07,0x00
00040c  04c00180          DCB      0x04,0xc0,0x01,0x80
000410  06000400          DCB      0x06,0x00,0x04,0x00
000414  060001c0          DCB      0x06,0x00,0x01,0xc0
000418  070001c0          DCB      0x07,0x00,0x01,0xc0
00041c  06000000          DCB      0x06,0x00,0x00,0x00
000420  044006c0          DCB      0x04,0x40,0x06,0xc0
000424  010006c0          DCB      0x01,0x00,0x06,0xc0
000428  04400000          DCB      0x04,0x40,0x00,0x00
00042c  04100710          DCB      0x04,0x10,0x07,0x10
000430  04e00180          DCB      0x04,0xe0,0x01,0x80
000434  06000400          DCB      0x06,0x00,0x04,0x00
000438  00000440          DCB      0x00,0x00,0x04,0x40
00043c  05c00640          DCB      0x05,0xc0,0x06,0x40
000440  04400000          DCB      0x04,0x40,0x00,0x00
000444  00000000          DCB      0x00,0x00,0x00,0x00
000448  04007be0          DCB      0x04,0x00,0x7b,0xe0
00044c  40200000          DCB      0x40,0x20,0x00,0x00
000450  00000000          DCB      0x00,0x00,0x00,0x00
000454  0000fff0          DCB      0x00,0x00,0xff,0xf0
000458  00000000          DCB      0x00,0x00,0x00,0x00
00045c  00004020          DCB      0x00,0x00,0x40,0x20
000460  7be00400          DCB      0x7b,0xe0,0x04,0x00
000464  00000000          DCB      0x00,0x00,0x00,0x00
000468  40008000          DCB      0x40,0x00,0x80,0x00
00046c  40002000          DCB      0x40,0x00,0x20,0x00
000470  20004000          DCB      0x20,0x00,0x40,0x00
                  asc2_1608
000474  00000000          DCB      0x00,0x00,0x00,0x00
000478  00000000          DCB      0x00,0x00,0x00,0x00
00047c  00000000          DCB      0x00,0x00,0x00,0x00
000480  00000000          DCB      0x00,0x00,0x00,0x00
000484  00000000          DCB      0x00,0x00,0x00,0x00
000488  00001fcc          DCB      0x00,0x00,0x1f,0xcc
00048c  000c0000          DCB      0x00,0x0c,0x00,0x00
000490  00000000          DCB      0x00,0x00,0x00,0x00
000494  00000800          DCB      0x00,0x00,0x08,0x00
000498  30006000          DCB      0x30,0x00,0x60,0x00
00049c  08003000          DCB      0x08,0x00,0x30,0x00
0004a0  60000000          DCB      0x60,0x00,0x00,0x00
0004a4  022003fc          DCB      0x02,0x20,0x03,0xfc
0004a8  1e200220          DCB      0x1e,0x20,0x02,0x20
0004ac  03fc1e20          DCB      0x03,0xfc,0x1e,0x20
0004b0  02200000          DCB      0x02,0x20,0x00,0x00
0004b4  00000e18          DCB      0x00,0x00,0x0e,0x18
0004b8  11043fff          DCB      0x11,0x04,0x3f,0xff
0004bc  10840c78          DCB      0x10,0x84,0x0c,0x78
0004c0  00000000          DCB      0x00,0x00,0x00,0x00
0004c4  0f001084          DCB      0x0f,0x00,0x10,0x84
0004c8  0f3800c0          DCB      0x0f,0x38,0x00,0xc0
0004cc  07781884          DCB      0x07,0x78,0x18,0x84
0004d0  00780000          DCB      0x00,0x78,0x00,0x00
0004d4  00780f84          DCB      0x00,0x78,0x0f,0x84
0004d8  10c41124          DCB      0x10,0xc4,0x11,0x24
0004dc  0e9800e4          DCB      0x0e,0x98,0x00,0xe4
0004e0  00840008          DCB      0x00,0x84,0x00,0x08
0004e4  08006800          DCB      0x08,0x00,0x68,0x00
0004e8  70000000          DCB      0x70,0x00,0x00,0x00
0004ec  00000000          DCB      0x00,0x00,0x00,0x00
0004f0  00000000          DCB      0x00,0x00,0x00,0x00
0004f4  00000000          DCB      0x00,0x00,0x00,0x00
0004f8  000007e0          DCB      0x00,0x00,0x07,0xe0
0004fc  18182004          DCB      0x18,0x18,0x20,0x04
000500  40020000          DCB      0x40,0x02,0x00,0x00
000504  00004002          DCB      0x00,0x00,0x40,0x02
000508  20041818          DCB      0x20,0x04,0x18,0x18
00050c  07e00000          DCB      0x07,0xe0,0x00,0x00
000510  00000000          DCB      0x00,0x00,0x00,0x00
000514  02400240          DCB      0x02,0x40,0x02,0x40
000518  01800ff0          DCB      0x01,0x80,0x0f,0xf0
00051c  01800240          DCB      0x01,0x80,0x02,0x40
000520  02400000          DCB      0x02,0x40,0x00,0x00
000524  00800080          DCB      0x00,0x80,0x00,0x80
000528  00800ff8          DCB      0x00,0x80,0x0f,0xf8
00052c  00800080          DCB      0x00,0x80,0x00,0x80
000530  00800000          DCB      0x00,0x80,0x00,0x00
000534  0001000d          DCB      0x00,0x01,0x00,0x0d
000538  000e0000          DCB      0x00,0x0e,0x00,0x00
00053c  00000000          DCB      0x00,0x00,0x00,0x00
000540  00000000          DCB      0x00,0x00,0x00,0x00
000544  00000080          DCB      0x00,0x00,0x00,0x80
000548  00800080          DCB      0x00,0x80,0x00,0x80
00054c  00800080          DCB      0x00,0x80,0x00,0x80
000550  00800080          DCB      0x00,0x80,0x00,0x80
000554  0000000c          DCB      0x00,0x00,0x00,0x0c
000558  000c0000          DCB      0x00,0x0c,0x00,0x00
00055c  00000000          DCB      0x00,0x00,0x00,0x00
000560  00000000          DCB      0x00,0x00,0x00,0x00
000564  00000006          DCB      0x00,0x00,0x00,0x06
000568  00180060          DCB      0x00,0x18,0x00,0x60
00056c  01800600          DCB      0x01,0x80,0x06,0x00
000570  18002000          DCB      0x18,0x00,0x20,0x00
000574  000007f0          DCB      0x00,0x00,0x07,0xf0
000578  08081004          DCB      0x08,0x08,0x10,0x04
00057c  10040808          DCB      0x10,0x04,0x08,0x08
000580  07f00000          DCB      0x07,0xf0,0x00,0x00
000584  00000804          DCB      0x00,0x00,0x08,0x04
000588  08041ffc          DCB      0x08,0x04,0x1f,0xfc
00058c  00040004          DCB      0x00,0x04,0x00,0x04
000590  00000000          DCB      0x00,0x00,0x00,0x00
000594  00000e0c          DCB      0x00,0x00,0x0e,0x0c
000598  10141024          DCB      0x10,0x14,0x10,0x24
00059c  10441184          DCB      0x10,0x44,0x11,0x84
0005a0  0e0c0000          DCB      0x0e,0x0c,0x00,0x00
0005a4  00000c18          DCB      0x00,0x00,0x0c,0x18
0005a8  10041104          DCB      0x10,0x04,0x11,0x04
0005ac  11041288          DCB      0x11,0x04,0x12,0x88
0005b0  0c700000          DCB      0x0c,0x70,0x00,0x00
0005b4  000000e0          DCB      0x00,0x00,0x00,0xe0
0005b8  03200424          DCB      0x03,0x20,0x04,0x24
0005bc  08241ffc          DCB      0x08,0x24,0x1f,0xfc
0005c0  00240000          DCB      0x00,0x24,0x00,0x00
0005c4  00001f98          DCB      0x00,0x00,0x1f,0x98
0005c8  10841104          DCB      0x10,0x84,0x11,0x04
0005cc  11041088          DCB      0x11,0x04,0x10,0x88
0005d0  10700000          DCB      0x10,0x70,0x00,0x00
0005d4  000007f0          DCB      0x00,0x00,0x07,0xf0
0005d8  08881104          DCB      0x08,0x88,0x11,0x04
0005dc  11041888          DCB      0x11,0x04,0x18,0x88
0005e0  00700000          DCB      0x00,0x70,0x00,0x00
0005e4  00001c00          DCB      0x00,0x00,0x1c,0x00
0005e8  100010fc          DCB      0x10,0x00,0x10,0xfc
0005ec  13001c00          DCB      0x13,0x00,0x1c,0x00
0005f0  10000000          DCB      0x10,0x00,0x00,0x00
0005f4  00000e38          DCB      0x00,0x00,0x0e,0x38
0005f8  11441084          DCB      0x11,0x44,0x10,0x84
0005fc  10841144          DCB      0x10,0x84,0x11,0x44
000600  0e380000          DCB      0x0e,0x38,0x00,0x00
000604  00000700          DCB      0x00,0x00,0x07,0x00
000608  088c1044          DCB      0x08,0x8c,0x10,0x44
00060c  10440888          DCB      0x10,0x44,0x08,0x88
000610  07f00000          DCB      0x07,0xf0,0x00,0x00
000614  00000000          DCB      0x00,0x00,0x00,0x00
000618  0000030c          DCB      0x00,0x00,0x03,0x0c
00061c  030c0000          DCB      0x03,0x0c,0x00,0x00
000620  00000000          DCB      0x00,0x00,0x00,0x00
000624  00000000          DCB      0x00,0x00,0x00,0x00
000628  00010106          DCB      0x00,0x01,0x01,0x06
00062c  00000000          DCB      0x00,0x00,0x00,0x00
000630  00000000          DCB      0x00,0x00,0x00,0x00
000634  00000080          DCB      0x00,0x00,0x00,0x80
000638  01400220          DCB      0x01,0x40,0x02,0x20
00063c  04100808          DCB      0x04,0x10,0x08,0x08
000640  10040000          DCB      0x10,0x04,0x00,0x00
000644  02200220          DCB      0x02,0x20,0x02,0x20
000648  02200220          DCB      0x02,0x20,0x02,0x20
00064c  02200220          DCB      0x02,0x20,0x02,0x20
000650  02200000          DCB      0x02,0x20,0x00,0x00
000654  00001004          DCB      0x00,0x00,0x10,0x04
000658  08080410          DCB      0x08,0x08,0x04,0x10
00065c  02200140          DCB      0x02,0x20,0x01,0x40
000660  00800000          DCB      0x00,0x80,0x00,0x00
000664  00000e00          DCB      0x00,0x00,0x0e,0x00
000668  1200100c          DCB      0x12,0x00,0x10,0x0c
00066c  106c1080          DCB      0x10,0x6c,0x10,0x80
000670  0f000000          DCB      0x0f,0x00,0x00,0x00
000674  03e00c18          DCB      0x03,0xe0,0x0c,0x18
000678  13e41424          DCB      0x13,0xe4,0x14,0x24
00067c  17c40828          DCB      0x17,0xc4,0x08,0x28
000680  07d00000          DCB      0x07,0xd0,0x00,0x00
000684  0004003c          DCB      0x00,0x04,0x00,0x3c
000688  03c41c40          DCB      0x03,0xc4,0x1c,0x40
00068c  074000e4          DCB      0x07,0x40,0x00,0xe4
000690  001c0004          DCB      0x00,0x1c,0x00,0x04
000694  10041ffc          DCB      0x10,0x04,0x1f,0xfc
000698  11041104          DCB      0x11,0x04,0x11,0x04
00069c  11040e88          DCB      0x11,0x04,0x0e,0x88
0006a0  00700000          DCB      0x00,0x70,0x00,0x00
0006a4  03e00c18          DCB      0x03,0xe0,0x0c,0x18
0006a8  10041004          DCB      0x10,0x04,0x10,0x04
0006ac  10041008          DCB      0x10,0x04,0x10,0x08
0006b0  1c100000          DCB      0x1c,0x10,0x00,0x00
0006b4  10041ffc          DCB      0x10,0x04,0x1f,0xfc
0006b8  10041004          DCB      0x10,0x04,0x10,0x04
0006bc  10040808          DCB      0x10,0x04,0x08,0x08
0006c0  07f00000          DCB      0x07,0xf0,0x00,0x00
0006c4  10041ffc          DCB      0x10,0x04,0x1f,0xfc
0006c8  11041104          DCB      0x11,0x04,0x11,0x04
0006cc  17c41004          DCB      0x17,0xc4,0x10,0x04
0006d0  08180000          DCB      0x08,0x18,0x00,0x00
0006d4  10041ffc          DCB      0x10,0x04,0x1f,0xfc
0006d8  11041100          DCB      0x11,0x04,0x11,0x00
0006dc  17c01000          DCB      0x17,0xc0,0x10,0x00
0006e0  08000000          DCB      0x08,0x00,0x00,0x00
0006e4  03e00c18          DCB      0x03,0xe0,0x0c,0x18
0006e8  10041004          DCB      0x10,0x04,0x10,0x04
0006ec  10441c78          DCB      0x10,0x44,0x1c,0x78
0006f0  00400000          DCB      0x00,0x40,0x00,0x00
0006f4  10041ffc          DCB      0x10,0x04,0x1f,0xfc
0006f8  10840080          DCB      0x10,0x84,0x00,0x80
0006fc  00801084          DCB      0x00,0x80,0x10,0x84
000700  1ffc1004          DCB      0x1f,0xfc,0x10,0x04
000704  00001004          DCB      0x00,0x00,0x10,0x04
000708  10041ffc          DCB      0x10,0x04,0x1f,0xfc
00070c  10041004          DCB      0x10,0x04,0x10,0x04
000710  00000000          DCB      0x00,0x00,0x00,0x00
000714  00030001          DCB      0x00,0x03,0x00,0x01
000718  10011001          DCB      0x10,0x01,0x10,0x01
00071c  1ffe1000          DCB      0x1f,0xfe,0x10,0x00
000720  10000000          DCB      0x10,0x00,0x00,0x00
000724  10041ffc          DCB      0x10,0x04,0x1f,0xfc
000728  11040380          DCB      0x11,0x04,0x03,0x80
00072c  1464181c          DCB      0x14,0x64,0x18,0x1c
000730  10040000          DCB      0x10,0x04,0x00,0x00
000734  10041ffc          DCB      0x10,0x04,0x1f,0xfc
000738  10040004          DCB      0x10,0x04,0x00,0x04
00073c  00040004          DCB      0x00,0x04,0x00,0x04
000740  000c0000          DCB      0x00,0x0c,0x00,0x00
000744  10041ffc          DCB      0x10,0x04,0x1f,0xfc
000748  1f0000fc          DCB      0x1f,0x00,0x00,0xfc
00074c  1f001ffc          DCB      0x1f,0x00,0x1f,0xfc
000750  10040000          DCB      0x10,0x04,0x00,0x00
000754  10041ffc          DCB      0x10,0x04,0x1f,0xfc
000758  0c040300          DCB      0x0c,0x04,0x03,0x00
00075c  00e01018          DCB      0x00,0xe0,0x10,0x18
000760  1ffc1000          DCB      0x1f,0xfc,0x10,0x00
000764  07f00808          DCB      0x07,0xf0,0x08,0x08
000768  10041004          DCB      0x10,0x04,0x10,0x04
00076c  10040808          DCB      0x10,0x04,0x08,0x08
000770  07f00000          DCB      0x07,0xf0,0x00,0x00
000774  10041ffc          DCB      0x10,0x04,0x1f,0xfc
000778  10841080          DCB      0x10,0x84,0x10,0x80
00077c  10801080          DCB      0x10,0x80,0x10,0x80
000780  0f000000          DCB      0x0f,0x00,0x00,0x00
000784  07f00818          DCB      0x07,0xf0,0x08,0x18
000788  10241024          DCB      0x10,0x24,0x10,0x24
00078c  101c080a          DCB      0x10,0x1c,0x08,0x0a
000790  07f20000          DCB      0x07,0xf2,0x00,0x00
000794  10041ffc          DCB      0x10,0x04,0x1f,0xfc
000798  11041100          DCB      0x11,0x04,0x11,0x00
00079c  11c01130          DCB      0x11,0xc0,0x11,0x30
0007a0  0e0c0004          DCB      0x0e,0x0c,0x00,0x04
0007a4  00000e1c          DCB      0x00,0x00,0x0e,0x1c
0007a8  11041084          DCB      0x11,0x04,0x10,0x84
0007ac  10841044          DCB      0x10,0x84,0x10,0x44
0007b0  1c380000          DCB      0x1c,0x38,0x00,0x00
0007b4  18001000          DCB      0x18,0x00,0x10,0x00
0007b8  10041ffc          DCB      0x10,0x04,0x1f,0xfc
0007bc  10041000          DCB      0x10,0x04,0x10,0x00
0007c0  18000000          DCB      0x18,0x00,0x00,0x00
0007c4  10001ff8          DCB      0x10,0x00,0x1f,0xf8
0007c8  10040004          DCB      0x10,0x04,0x00,0x04
0007cc  00041004          DCB      0x00,0x04,0x10,0x04
0007d0  1ff81000          DCB      0x1f,0xf8,0x10,0x00
0007d4  10001e00          DCB      0x10,0x00,0x1e,0x00
0007d8  11e0001c          DCB      0x11,0xe0,0x00,0x1c
0007dc  00701380          DCB      0x00,0x70,0x13,0x80
0007e0  1c001000          DCB      0x1c,0x00,0x10,0x00
0007e4  1fc0103c          DCB      0x1f,0xc0,0x10,0x3c
0007e8  00e01f00          DCB      0x00,0xe0,0x1f,0x00
0007ec  00e0103c          DCB      0x00,0xe0,0x10,0x3c
0007f0  1fc00000          DCB      0x1f,0xc0,0x00,0x00
0007f4  1004180c          DCB      0x10,0x04,0x18,0x0c
0007f8  163401c0          DCB      0x16,0x34,0x01,0xc0
0007fc  01c01634          DCB      0x01,0xc0,0x16,0x34
000800  180c1004          DCB      0x18,0x0c,0x10,0x04
000804  10001c00          DCB      0x10,0x00,0x1c,0x00
000808  130400fc          DCB      0x13,0x04,0x00,0xfc
00080c  13041c00          DCB      0x13,0x04,0x1c,0x00
000810  10000000          DCB      0x10,0x00,0x00,0x00
000814  0804101c          DCB      0x08,0x04,0x10,0x1c
000818  10641084          DCB      0x10,0x64,0x10,0x84
00081c  13041c04          DCB      0x13,0x04,0x1c,0x04
000820  10180000          DCB      0x10,0x18,0x00,0x00
000824  00000000          DCB      0x00,0x00,0x00,0x00
000828  00007ffe          DCB      0x00,0x00,0x7f,0xfe
00082c  40024002          DCB      0x40,0x02,0x40,0x02
000830  40020000          DCB      0x40,0x02,0x00,0x00
000834  00003000          DCB      0x00,0x00,0x30,0x00
000838  0c000380          DCB      0x0c,0x00,0x03,0x80
00083c  0060001c          DCB      0x00,0x60,0x00,0x1c
000840  00030000          DCB      0x00,0x03,0x00,0x00
000844  00004002          DCB      0x00,0x00,0x40,0x02
000848  40024002          DCB      0x40,0x02,0x40,0x02
00084c  7ffe0000          DCB      0x7f,0xfe,0x00,0x00
000850  00000000          DCB      0x00,0x00,0x00,0x00
000854  00000000          DCB      0x00,0x00,0x00,0x00
000858  20004000          DCB      0x20,0x00,0x40,0x00
00085c  40004000          DCB      0x40,0x00,0x40,0x00
000860  20000000          DCB      0x20,0x00,0x00,0x00
000864  00010001          DCB      0x00,0x01,0x00,0x01
000868  00010001          DCB      0x00,0x01,0x00,0x01
00086c  00010001          DCB      0x00,0x01,0x00,0x01
000870  00010001          DCB      0x00,0x01,0x00,0x01
000874  00004000          DCB      0x00,0x00,0x40,0x00
000878  40002000          DCB      0x40,0x00,0x20,0x00
00087c  00000000          DCB      0x00,0x00,0x00,0x00
000880  00000000          DCB      0x00,0x00,0x00,0x00
000884  00000098          DCB      0x00,0x00,0x00,0x98
000888  01240144          DCB      0x01,0x24,0x01,0x44
00088c  01440144          DCB      0x01,0x44,0x01,0x44
000890  00fc0004          DCB      0x00,0xfc,0x00,0x04
000894  10001ffc          DCB      0x10,0x00,0x1f,0xfc
000898  00880104          DCB      0x00,0x88,0x01,0x04
00089c  01040088          DCB      0x01,0x04,0x00,0x88
0008a0  00700000          DCB      0x00,0x70,0x00,0x00
0008a4  00000070          DCB      0x00,0x00,0x00,0x70
0008a8  00880104          DCB      0x00,0x88,0x01,0x04
0008ac  01040104          DCB      0x01,0x04,0x01,0x04
0008b0  00880000          DCB      0x00,0x88,0x00,0x00
0008b4  00000070          DCB      0x00,0x00,0x00,0x70
0008b8  00880104          DCB      0x00,0x88,0x01,0x04
0008bc  01041108          DCB      0x01,0x04,0x11,0x08
0008c0  1ffc0004          DCB      0x1f,0xfc,0x00,0x04
0008c4  000000f8          DCB      0x00,0x00,0x00,0xf8
0008c8  01440144          DCB      0x01,0x44,0x01,0x44
0008cc  01440144          DCB      0x01,0x44,0x01,0x44
0008d0  00c80000          DCB      0x00,0xc8,0x00,0x00
0008d4  00000104          DCB      0x00,0x00,0x01,0x04
0008d8  01040ffc          DCB      0x01,0x04,0x0f,0xfc
0008dc  11041104          DCB      0x11,0x04,0x11,0x04
0008e0  11001800          DCB      0x11,0x00,0x18,0x00
0008e4  000000d6          DCB      0x00,0x00,0x00,0xd6
0008e8  01290129          DCB      0x01,0x29,0x01,0x29
0008ec  012901c9          DCB      0x01,0x29,0x01,0xc9
0008f0  01060000          DCB      0x01,0x06,0x00,0x00
0008f4  10041ffc          DCB      0x10,0x04,0x1f,0xfc
0008f8  00840100          DCB      0x00,0x84,0x01,0x00
0008fc  01000104          DCB      0x01,0x00,0x01,0x04
000900  00fc0004          DCB      0x00,0xfc,0x00,0x04
000904  00000104          DCB      0x00,0x00,0x01,0x04
000908  190419fc          DCB      0x19,0x04,0x19,0xfc
00090c  00040004          DCB      0x00,0x04,0x00,0x04
000910  00000000          DCB      0x00,0x00,0x00,0x00
000914  00000003          DCB      0x00,0x00,0x00,0x03
000918  00010101          DCB      0x00,0x01,0x01,0x01
00091c  190119fe          DCB      0x19,0x01,0x19,0xfe
000920  00000000          DCB      0x00,0x00,0x00,0x00
000924  10041ffc          DCB      0x10,0x04,0x1f,0xfc
000928  00240040          DCB      0x00,0x24,0x00,0x40
00092c  01b4010c          DCB      0x01,0xb4,0x01,0x0c
000930  01040000          DCB      0x01,0x04,0x00,0x00
000934  00001004          DCB      0x00,0x00,0x10,0x04
000938  10041ffc          DCB      0x10,0x04,0x1f,0xfc
00093c  00040004          DCB      0x00,0x04,0x00,0x04
000940  00000000          DCB      0x00,0x00,0x00,0x00
000944  010401fc          DCB      0x01,0x04,0x01,0xfc
000948  01040100          DCB      0x01,0x04,0x01,0x00
00094c  01fc0104          DCB      0x01,0xfc,0x01,0x04
000950  010000fc          DCB      0x01,0x00,0x00,0xfc
000954  010401fc          DCB      0x01,0x04,0x01,0xfc
000958  00840100          DCB      0x00,0x84,0x01,0x00
00095c  01000104          DCB      0x01,0x00,0x01,0x04
000960  00fc0004          DCB      0x00,0xfc,0x00,0x04
000964  000000f8          DCB      0x00,0x00,0x00,0xf8
000968  01040104          DCB      0x01,0x04,0x01,0x04
00096c  01040104          DCB      0x01,0x04,0x01,0x04
000970  00f80000          DCB      0x00,0xf8,0x00,0x00
000974  010101ff          DCB      0x01,0x01,0x01,0xff
000978  00850104          DCB      0x00,0x85,0x01,0x04
00097c  01040088          DCB      0x01,0x04,0x00,0x88
000980  00700000          DCB      0x00,0x70,0x00,0x00
000984  00000070          DCB      0x00,0x00,0x00,0x70
000988  00880104          DCB      0x00,0x88,0x01,0x04
00098c  01040105          DCB      0x01,0x04,0x01,0x05
000990  01ff0001          DCB      0x01,0xff,0x00,0x01
000994  01040104          DCB      0x01,0x04,0x01,0x04
000998  01fc0084          DCB      0x01,0xfc,0x00,0x84
00099c  01040100          DCB      0x01,0x04,0x01,0x00
0009a0  01800000          DCB      0x01,0x80,0x00,0x00
0009a4  000000cc          DCB      0x00,0x00,0x00,0xcc
0009a8  01240124          DCB      0x01,0x24,0x01,0x24
0009ac  01240124          DCB      0x01,0x24,0x01,0x24
0009b0  01980000          DCB      0x01,0x98,0x00,0x00
0009b4  00000100          DCB      0x00,0x00,0x01,0x00
0009b8  010007f8          DCB      0x01,0x00,0x07,0xf8
0009bc  01040104          DCB      0x01,0x04,0x01,0x04
0009c0  00000000          DCB      0x00,0x00,0x00,0x00
0009c4  010001f8          DCB      0x01,0x00,0x01,0xf8
0009c8  00040004          DCB      0x00,0x04,0x00,0x04
0009cc  00040108          DCB      0x00,0x04,0x01,0x08
0009d0  01fc0004          DCB      0x01,0xfc,0x00,0x04
0009d4  01000180          DCB      0x01,0x00,0x01,0x80
0009d8  0170000c          DCB      0x01,0x70,0x00,0x0c
0009dc  00100160          DCB      0x00,0x10,0x01,0x60
0009e0  01800100          DCB      0x01,0x80,0x01,0x00
0009e4  01f0010c          DCB      0x01,0xf0,0x01,0x0c
0009e8  003001c0          DCB      0x00,0x30,0x01,0xc0
0009ec  0030010c          DCB      0x00,0x30,0x01,0x0c
0009f0  01f00100          DCB      0x01,0xf0,0x01,0x00
0009f4  00000104          DCB      0x00,0x00,0x01,0x04
0009f8  018c0074          DCB      0x01,0x8c,0x00,0x74
0009fc  0170018c          DCB      0x01,0x70,0x01,0x8c
000a00  01040000          DCB      0x01,0x04,0x00,0x00
000a04  01010181          DCB      0x01,0x01,0x01,0x81
000a08  0171000e          DCB      0x01,0x71,0x00,0x0e
000a0c  00180160          DCB      0x00,0x18,0x01,0x60
000a10  01800100          DCB      0x01,0x80,0x01,0x00
000a14  00000184          DCB      0x00,0x00,0x01,0x84
000a18  010c0134          DCB      0x01,0x0c,0x01,0x34
000a1c  01440184          DCB      0x01,0x44,0x01,0x84
000a20  010c0000          DCB      0x01,0x0c,0x00,0x00
000a24  00000000          DCB      0x00,0x00,0x00,0x00
000a28  00000000          DCB      0x00,0x00,0x00,0x00
000a2c  01003efc          DCB      0x01,0x00,0x3e,0xfc
000a30  40024002          DCB      0x40,0x02,0x40,0x02
000a34  00000000          DCB      0x00,0x00,0x00,0x00
000a38  00000000          DCB      0x00,0x00,0x00,0x00
000a3c  ffff0000          DCB      0xff,0xff,0x00,0x00
000a40  00000000          DCB      0x00,0x00,0x00,0x00
000a44  00004002          DCB      0x00,0x00,0x40,0x02
000a48  40023efc          DCB      0x40,0x02,0x3e,0xfc
000a4c  01000000          DCB      0x01,0x00,0x00,0x00
000a50  00000000          DCB      0x00,0x00,0x00,0x00
000a54  00006000          DCB      0x00,0x00,0x60,0x00
000a58  80008000          DCB      0x80,0x00,0x80,0x00
000a5c  40004000          DCB      0x40,0x00,0x40,0x00
000a60  20002000          DCB      0x20,0x00,0x20,0x00
                  asc2_2412
000a64  00000000          DCB      0x00,0x00,0x00,0x00
000a68  00000000          DCB      0x00,0x00,0x00,0x00
000a6c  00000000          DCB      0x00,0x00,0x00,0x00
000a70  00000000          DCB      0x00,0x00,0x00,0x00
000a74  00000000          DCB      0x00,0x00,0x00,0x00
000a78  00000000          DCB      0x00,0x00,0x00,0x00
000a7c  00000000          DCB      0x00,0x00,0x00,0x00
000a80  00000000          DCB      0x00,0x00,0x00,0x00
000a84  00000000          DCB      0x00,0x00,0x00,0x00
000a88  00000000          DCB      0x00,0x00,0x00,0x00
000a8c  00000000          DCB      0x00,0x00,0x00,0x00
000a90  00000000          DCB      0x00,0x00,0x00,0x00
000a94  0000000f          DCB      0x00,0x00,0x00,0x0f
000a98  80380ffe          DCB      0x80,0x38,0x0f,0xfe
000a9c  380f8038          DCB      0x38,0x0f,0x80,0x38
000aa0  00000000          DCB      0x00,0x00,0x00,0x00
000aa4  00000000          DCB      0x00,0x00,0x00,0x00
000aa8  00000000          DCB      0x00,0x00,0x00,0x00
000aac  00000000          DCB      0x00,0x00,0x00,0x00
000ab0  00000100          DCB      0x00,0x00,0x01,0x00
000ab4  00060000          DCB      0x00,0x06,0x00,0x00
000ab8  0c000038          DCB      0x0c,0x00,0x00,0x38
000abc  00003100          DCB      0x00,0x00,0x31,0x00
000ac0  00060000          DCB      0x00,0x06,0x00,0x00
000ac4  0c000038          DCB      0x0c,0x00,0x00,0x38
000ac8  00003000          DCB      0x00,0x00,0x30,0x00
000acc  00000000          DCB      0x00,0x00,0x00,0x00
000ad0  00000000          DCB      0x00,0x00,0x00,0x00
000ad4  61800067          DCB      0x61,0x80,0x00,0x67
000ad8  f807f980          DCB      0xf8,0x07,0xf9,0x80
000adc  00618000          DCB      0x00,0x61,0x80,0x00
000ae0  61800061          DCB      0x61,0x80,0x00,0x61
000ae4  80006180          DCB      0x80,0x00,0x61,0x80
000ae8  0067f807          DCB      0x00,0x67,0xf8,0x07
000aec  f9800061          DCB      0xf9,0x80,0x00,0x61
000af0  80000000          DCB      0x80,0x00,0x00,0x00
000af4  00000000          DCB      0x00,0x00,0x00,0x00
000af8  000001c0          DCB      0x00,0x00,0x01,0xc0
000afc  e003e0f0          DCB      0xe0,0x03,0xe0,0xf0
000b00  06300804          DCB      0x06,0x30,0x08,0x04
000b04  18081fff          DCB      0x18,0x08,0x1f,0xff
000b08  fe040e08          DCB      0xfe,0x04,0x0e,0x08
000b0c  0787f003          DCB      0x07,0x87,0xf0,0x03
000b10  81e00000          DCB      0x81,0xe0,0x00,0x00
000b14  00000000          DCB      0x00,0x00,0x00,0x00
000b18  01f00006          DCB      0x01,0xf0,0x00,0x06
000b1c  0c000404          DCB      0x0c,0x00,0x04,0x04
000b20  08060c70          DCB      0x08,0x06,0x0c,0x70
000b24  01f9c000          DCB      0x01,0xf9,0xc0,0x00
000b28  0e00003b          DCB      0x0e,0x00,0x00,0x3b
000b2c  e000ec18          DCB      0xe0,0x00,0xec,0x18
000b30  07080804          DCB      0x07,0x08,0x08,0x04
000b34  0c180003          DCB      0x0c,0x18,0x00,0x03
000b38  e0000000          DCB      0xe0,0x00,0x00,0x00
000b3c  0001e000          DCB      0x00,0x01,0xe0,0x00
000b40  07f003f8          DCB      0x07,0xf0,0x03,0xf8
000b44  18041c08          DCB      0x18,0x04,0x1c,0x08
000b48  04170807          DCB      0x04,0x17,0x08,0x07
000b4c  e1d003c0          DCB      0xe1,0xd0,0x03,0xc0
000b50  e00023b0          DCB      0xe0,0x00,0x23,0xb0
000b54  003c0800          DCB      0x00,0x3c,0x08,0x00
000b58  20080000          DCB      0x20,0x08,0x00,0x00
000b5c  10000000          DCB      0x10,0x00,0x00,0x00
000b60  00000001          DCB      0x00,0x00,0x00,0x01
000b64  00003100          DCB      0x00,0x00,0x31,0x00
000b68  00320000          DCB      0x00,0x32,0x00,0x00
000b6c  1c000000          DCB      0x1c,0x00,0x00,0x00
000b70  00000000          DCB      0x00,0x00,0x00,0x00
000b74  00000000          DCB      0x00,0x00,0x00,0x00
000b78  00000000          DCB      0x00,0x00,0x00,0x00
000b7c  00000000          DCB      0x00,0x00,0x00,0x00
000b80  00000000          DCB      0x00,0x00,0x00,0x00
000b84  00000000          DCB      0x00,0x00,0x00,0x00
000b88  00000000          DCB      0x00,0x00,0x00,0x00
000b8c  00000000          DCB      0x00,0x00,0x00,0x00
000b90  00000000          DCB      0x00,0x00,0x00,0x00
000b94  7f0001ff          DCB      0x7f,0x00,0x01,0xff
000b98  c00780f0          DCB      0xc0,0x07,0x80,0xf0
000b9c  0c001810          DCB      0x0c,0x00,0x18,0x10
000ba0  00042000          DCB      0x00,0x04,0x20,0x00
000ba4  02000000          DCB      0x02,0x00,0x00,0x00
000ba8  00000020          DCB      0x00,0x00,0x00,0x20
000bac  00021000          DCB      0x00,0x02,0x10,0x00
000bb0  040c0018          DCB      0x04,0x0c,0x00,0x18
000bb4  0780f001          DCB      0x07,0x80,0xf0,0x01
000bb8  ffc0007f          DCB      0xff,0xc0,0x00,0x7f
000bbc  00000000          DCB      0x00,0x00,0x00,0x00
000bc0  00000000          DCB      0x00,0x00,0x00,0x00
000bc4  00000000          DCB      0x00,0x00,0x00,0x00
000bc8  00000000          DCB      0x00,0x00,0x00,0x00
000bcc  00000000          DCB      0x00,0x00,0x00,0x00
000bd0  42000066          DCB      0x42,0x00,0x00,0x66
000bd4  00006600          DCB      0x00,0x00,0x66,0x00
000bd8  003c0000          DCB      0x00,0x3c,0x00,0x00
000bdc  180003ff          DCB      0x18,0x00,0x03,0xff
000be0  c0001800          DCB      0xc0,0x00,0x18,0x00
000be4  003c0000          DCB      0x00,0x3c,0x00,0x00
000be8  66000066          DCB      0x66,0x00,0x00,0x66
000bec  00004200          DCB      0x00,0x00,0x42,0x00
000bf0  00000000          DCB      0x00,0x00,0x00,0x00
000bf4  08000008          DCB      0x08,0x00,0x00,0x08
000bf8  00000800          DCB      0x00,0x00,0x08,0x00
000bfc  00080000          DCB      0x00,0x08,0x00,0x00
000c00  080001ff          DCB      0x08,0x00,0x01,0xff
000c04  c0000800          DCB      0xc0,0x00,0x08,0x00
000c08  00080000          DCB      0x00,0x08,0x00,0x00
000c0c  08000008          DCB      0x08,0x00,0x00,0x08
000c10  00000800          DCB      0x00,0x00,0x08,0x00
000c14  00000000          DCB      0x00,0x00,0x00,0x00
000c18  00010000          DCB      0x00,0x01,0x00,0x00
000c1c  31000032          DCB      0x31,0x00,0x00,0x32
000c20  00001c00          DCB      0x00,0x00,0x1c,0x00
000c24  00000000          DCB      0x00,0x00,0x00,0x00
000c28  00000000          DCB      0x00,0x00,0x00,0x00
000c2c  00000000          DCB      0x00,0x00,0x00,0x00
000c30  00000000          DCB      0x00,0x00,0x00,0x00
000c34  00000000          DCB      0x00,0x00,0x00,0x00
000c38  00000000          DCB      0x00,0x00,0x00,0x00
000c3c  08000008          DCB      0x08,0x00,0x00,0x08
000c40  00000800          DCB      0x00,0x00,0x08,0x00
000c44  00080000          DCB      0x00,0x08,0x00,0x00
000c48  08000008          DCB      0x08,0x00,0x00,0x08
000c4c  00000800          DCB      0x00,0x00,0x08,0x00
000c50  00080000          DCB      0x00,0x08,0x00,0x00
000c54  08000008          DCB      0x08,0x00,0x00,0x08
000c58  00000000          DCB      0x00,0x00,0x00,0x00
000c5c  00000000          DCB      0x00,0x00,0x00,0x00
000c60  00000000          DCB      0x00,0x00,0x00,0x00
000c64  38000038          DCB      0x38,0x00,0x00,0x38
000c68  00003800          DCB      0x00,0x00,0x38,0x00
000c6c  00000000          DCB      0x00,0x00,0x00,0x00
000c70  00000000          DCB      0x00,0x00,0x00,0x00
000c74  00000000          DCB      0x00,0x00,0x00,0x00
000c78  00000000          DCB      0x00,0x00,0x00,0x00
000c7c  00000000          DCB      0x00,0x00,0x00,0x00
000c80  00000000          DCB      0x00,0x00,0x00,0x00
000c84  00060000          DCB      0x00,0x06,0x00,0x00
000c88  1c000070          DCB      0x1c,0x00,0x00,0x70
000c8c  00018000          DCB      0x00,0x01,0x80,0x00
000c90  0e000038          DCB      0x0e,0x00,0x00,0x38
000c94  0000c000          DCB      0x00,0x00,0xc0,0x00
000c98  0700001c          DCB      0x07,0x00,0x00,0x1c
000c9c  00003000          DCB      0x00,0x00,0x30,0x00
000ca0  00000000          DCB      0x00,0x00,0x00,0x00
000ca4  00000000          DCB      0x00,0x00,0x00,0x00
000ca8  7f8001ff          DCB      0x7f,0x80,0x01,0xff
000cac  e0038070          DCB      0xe0,0x03,0x80,0x70
000cb0  06001804          DCB      0x06,0x00,0x18,0x04
000cb4  00080400          DCB      0x00,0x08,0x04,0x00
000cb8  08060018          DCB      0x08,0x06,0x00,0x18
000cbc  03807001          DCB      0x03,0x80,0x70,0x01
000cc0  ffe0007f          DCB      0xff,0xe0,0x00,0x7f
000cc4  80000000          DCB      0x80,0x00,0x00,0x00
000cc8  00000000          DCB      0x00,0x00,0x00,0x00
000ccc  00000100          DCB      0x00,0x00,0x01,0x00
000cd0  08010008          DCB      0x08,0x01,0x00,0x08
000cd4  01000803          DCB      0x01,0x00,0x08,0x03
000cd8  fff807ff          DCB      0xff,0xf8,0x07,0xff
000cdc  f8000008          DCB      0xf8,0x00,0x00,0x08
000ce0  00000800          DCB      0x00,0x00,0x08,0x00
000ce4  00080000          DCB      0x00,0x08,0x00,0x00
000ce8  00000000          DCB      0x00,0x00,0x00,0x00
000cec  00000001          DCB      0x00,0x00,0x00,0x01
000cf0  c03802c0          DCB      0xc0,0x38,0x02,0xc0
000cf4  58040098          DCB      0x58,0x04,0x00,0x98
000cf8  04011804          DCB      0x04,0x01,0x18,0x04
000cfc  02180404          DCB      0x02,0x18,0x04,0x04
000d00  18061c18          DCB      0x18,0x06,0x1c,0x18
000d04  03f81801          DCB      0x03,0xf8,0x18,0x01
000d08  e0f80000          DCB      0xe0,0xf8,0x00,0x00
000d0c  00000000          DCB      0x00,0x00,0x00,0x00
000d10  00000001          DCB      0x00,0x00,0x00,0x01
000d14  c0e003c0          DCB      0xc0,0xe0,0x03,0xc0
000d18  f0040008          DCB      0xf0,0x04,0x00,0x08
000d1c  04080804          DCB      0x04,0x08,0x08,0x04
000d20  08080618          DCB      0x08,0x08,0x06,0x18
000d24  0803f418          DCB      0x08,0x03,0xf4,0x18
000d28  01e7f000          DCB      0x01,0xe7,0xf0,0x00
000d2c  01e00000          DCB      0x01,0xe0,0x00,0x00
000d30  00000000          DCB      0x00,0x00,0x00,0x00
000d34  00000000          DCB      0x00,0x00,0x00,0x00
000d38  0300000d          DCB      0x03,0x00,0x00,0x0d
000d3c  00001100          DCB      0x00,0x00,0x11,0x00
000d40  00610000          DCB      0x00,0x61,0x00,0x00
000d44  81080301          DCB      0x81,0x08,0x03,0x01
000d48  0807fff8          DCB      0x08,0x07,0xff,0xf8
000d4c  0ffff800          DCB      0x0f,0xff,0xf8,0x00
000d50  01080001          DCB      0x01,0x08,0x00,0x01
000d54  08000000          DCB      0x08,0x00,0x00,0x00
000d58  00000000          DCB      0x00,0x00,0x00,0x00
000d5c  00e007fc          DCB      0x00,0xe0,0x07,0xfc
000d60  d0060808          DCB      0xd0,0x06,0x08,0x08
000d64  06100806          DCB      0x06,0x10,0x08,0x06
000d68  10080610          DCB      0x10,0x08,0x06,0x10
000d6c  08061838          DCB      0x08,0x06,0x18,0x38
000d70  060ff006          DCB      0x06,0x0f,0xf0,0x06
000d74  07c00000          DCB      0x07,0xc0,0x00,0x00
000d78  00000000          DCB      0x00,0x00,0x00,0x00
000d7c  00000000          DCB      0x00,0x00,0x00,0x00
000d80  3f8001ff          DCB      0x3f,0x80,0x01,0xff
000d84  e0038430          DCB      0xe0,0x03,0x84,0x30
000d88  02081804          DCB      0x02,0x08,0x18,0x04
000d8c  10080410          DCB      0x10,0x08,0x04,0x10
000d90  08041008          DCB      0x08,0x04,0x10,0x08
000d94  07181003          DCB      0x07,0x18,0x10,0x03
000d98  0ff00007          DCB      0x0f,0xf0,0x00,0x07
000d9c  c0000000          DCB      0xc0,0x00,0x00,0x00
000da0  00000000          DCB      0x00,0x00,0x00,0x00
000da4  000003c0          DCB      0x00,0x00,0x03,0xc0
000da8  00070000          DCB      0x00,0x07,0x00,0x00
000dac  06000006          DCB      0x06,0x00,0x00,0x06
000db0  00f80607          DCB      0x00,0xf8,0x06,0x07
000db4  f8061800          DCB      0xf8,0x06,0x18,0x00
000db8  06e00007          DCB      0x06,0xe0,0x00,0x07
000dbc  00000600          DCB      0x00,0x00,0x06,0x00
000dc0  00000000          DCB      0x00,0x00,0x00,0x00
000dc4  00000001          DCB      0x00,0x00,0x00,0x01
000dc8  e1e003f7          DCB      0xe1,0xe0,0x03,0xf7
000dcc  f0063410          DCB      0xf0,0x06,0x34,0x10
000dd0  04180804          DCB      0x04,0x18,0x08,0x04
000dd4  1808040c          DCB      0x18,0x08,0x04,0x0c
000dd8  08040c08          DCB      0x08,0x04,0x0c,0x08
000ddc  06161803          DCB      0x06,0x16,0x18,0x03
000de0  f3f001c1          DCB      0xf3,0xf0,0x01,0xc1
000de4  e0000000          DCB      0xe0,0x00,0x00,0x00
000de8  00000000          DCB      0x00,0x00,0x00,0x00
000dec  f80003fc          DCB      0xf8,0x00,0x03,0xfc
000df0  30030638          DCB      0x30,0x03,0x06,0x38
000df4  04020804          DCB      0x04,0x02,0x08,0x04
000df8  02080402          DCB      0x02,0x08,0x04,0x02
000dfc  08040410          DCB      0x08,0x04,0x04,0x10
000e00  0308f001          DCB      0x03,0x08,0xf0,0x01
000e04  ffc0007f          DCB      0xff,0xc0,0x00,0x7f
000e08  00000000          DCB      0x00,0x00,0x00,0x00
000e0c  00000000          DCB      0x00,0x00,0x00,0x00
000e10  00000000          DCB      0x00,0x00,0x00,0x00
000e14  00000000          DCB      0x00,0x00,0x00,0x00
000e18  00000000          DCB      0x00,0x00,0x00,0x00
000e1c  70380070          DCB      0x70,0x38,0x00,0x70
000e20  38007038          DCB      0x38,0x00,0x70,0x38
000e24  00000000          DCB      0x00,0x00,0x00,0x00
000e28  00000000          DCB      0x00,0x00,0x00,0x00
000e2c  00000000          DCB      0x00,0x00,0x00,0x00
000e30  00000000          DCB      0x00,0x00,0x00,0x00
000e34  00000000          DCB      0x00,0x00,0x00,0x00
000e38  00000000          DCB      0x00,0x00,0x00,0x00
000e3c  00000000          DCB      0x00,0x00,0x00,0x00
000e40  301a0030          DCB      0x30,0x1a,0x00,0x30
000e44  1c000000          DCB      0x1c,0x00,0x00,0x00
000e48  00000000          DCB      0x00,0x00,0x00,0x00
000e4c  00000000          DCB      0x00,0x00,0x00,0x00
000e50  00000000          DCB      0x00,0x00,0x00,0x00
000e54  00000000          DCB      0x00,0x00,0x00,0x00
000e58  00000008          DCB      0x00,0x00,0x00,0x08
000e5c  00001400          DCB      0x00,0x00,0x14,0x00
000e60  00220000          DCB      0x00,0x22,0x00,0x00
000e64  41000080          DCB      0x41,0x00,0x00,0x80
000e68  80010040          DCB      0x80,0x01,0x00,0x40
000e6c  02002004          DCB      0x02,0x00,0x20,0x04
000e70  00100800          DCB      0x00,0x10,0x08,0x00
000e74  08000000          DCB      0x08,0x00,0x00,0x00
000e78  00000000          DCB      0x00,0x00,0x00,0x00
000e7c  21000021          DCB      0x21,0x00,0x00,0x21
000e80  00002100          DCB      0x00,0x00,0x21,0x00
000e84  00210000          DCB      0x00,0x21,0x00,0x00
000e88  21000021          DCB      0x21,0x00,0x00,0x21
000e8c  00002100          DCB      0x00,0x00,0x21,0x00
000e90  00210000          DCB      0x00,0x21,0x00,0x00
000e94  21000021          DCB      0x21,0x00,0x00,0x21
000e98  00000000          DCB      0x00,0x00,0x00,0x00
000e9c  00000000          DCB      0x00,0x00,0x00,0x00
000ea0  00000800          DCB      0x00,0x00,0x08,0x00
000ea4  08040010          DCB      0x08,0x04,0x00,0x10
000ea8  02002001          DCB      0x02,0x00,0x20,0x01
000eac  00400080          DCB      0x00,0x40,0x00,0x80
000eb0  80004100          DCB      0x80,0x00,0x41,0x00
000eb4  00220000          DCB      0x00,0x22,0x00,0x00
000eb8  14000008          DCB      0x14,0x00,0x00,0x08
000ebc  00000000          DCB      0x00,0x00,0x00,0x00
000ec0  00000003          DCB      0x00,0x00,0x00,0x03
000ec4  c00004c0          DCB      0xc0,0x00,0x04,0xc0
000ec8  00040000          DCB      0x00,0x04,0x00,0x00
000ecc  08003808          DCB      0x08,0x00,0x38,0x08
000ed0  0f380808          DCB      0x0f,0x38,0x08,0x08
000ed4  38081000          DCB      0x38,0x08,0x10,0x00
000ed8  0c300007          DCB      0x0c,0x30,0x00,0x07
000edc  e00003c0          DCB      0xe0,0x00,0x03,0xc0
000ee0  00000000          DCB      0x00,0x00,0x00,0x00
000ee4  00000000          DCB      0x00,0x00,0x00,0x00
000ee8  3f8000ff          DCB      0x3f,0x80,0x00,0xff
000eec  e0038070          DCB      0xe0,0x03,0x80,0x70
000ef0  020f1006          DCB      0x02,0x0f,0x10,0x06
000ef4  708804c0          DCB      0x70,0x88,0x04,0xc0
000ef8  88048308          DCB      0x88,0x04,0x83,0x08
000efc  047f8802          DCB      0x04,0x7f,0x88,0x02
000f00  c0900301          DCB      0xc0,0x90,0x03,0x01
000f04  2000fe40          DCB      0x20,0x00,0xfe,0x40
000f08  00000800          DCB      0x00,0x00,0x08,0x00
000f0c  00180001          DCB      0x00,0x18,0x00,0x01
000f10  f8003e08          DCB      0xf8,0x00,0x3e,0x08
000f14  01c20007          DCB      0x01,0xc2,0x00,0x07
000f18  020007e2          DCB      0x02,0x00,0x07,0xe2
000f1c  0000fe00          DCB      0x00,0x00,0xfe,0x00
000f20  001fc800          DCB      0x00,0x1f,0xc8,0x00
000f24  01f80000          DCB      0x01,0xf8,0x00,0x00
000f28  38000008          DCB      0x38,0x00,0x00,0x08
000f2c  04000807          DCB      0x04,0x00,0x08,0x07
000f30  fff807ff          DCB      0xff,0xf8,0x07,0xff
000f34  f8040808          DCB      0xf8,0x04,0x08,0x08
000f38  04080804          DCB      0x04,0x08,0x08,0x04
000f3c  08080408          DCB      0x08,0x08,0x04,0x08
000f40  08061808          DCB      0x08,0x06,0x18,0x08
000f44  03f41801          DCB      0x03,0xf4,0x18,0x01
000f48  e7f00001          DCB      0xe7,0xf0,0x00,0x01
000f4c  e0000000          DCB      0xe0,0x00,0x00,0x00
000f50  00000000          DCB      0x00,0x00,0x00,0x00
000f54  3f8001ff          DCB      0x3f,0x80,0x01,0xff
000f58  e0038070          DCB      0xe0,0x03,0x80,0x70
000f5c  02001804          DCB      0x02,0x00,0x18,0x04
000f60  00080400          DCB      0x00,0x08,0x04,0x00
000f64  08040008          DCB      0x08,0x04,0x00,0x08
000f68  04001006          DCB      0x04,0x00,0x10,0x06
000f6c  00200780          DCB      0x00,0x20,0x07,0x80
000f70  c0000000          DCB      0xc0,0x00,0x00,0x00
000f74  04000807          DCB      0x04,0x00,0x08,0x07
000f78  fff807ff          DCB      0xff,0xf8,0x07,0xff
000f7c  f8040008          DCB      0xf8,0x04,0x00,0x08
000f80  04000804          DCB      0x04,0x00,0x08,0x04
000f84  00080400          DCB      0x00,0x08,0x04,0x00
000f88  18020010          DCB      0x18,0x02,0x00,0x10
000f8c  03807001          DCB      0x03,0x80,0x70,0x01
000f90  ffe0007f          DCB      0xff,0xe0,0x00,0x7f
000f94  80000000          DCB      0x80,0x00,0x00,0x00
000f98  04000807          DCB      0x04,0x00,0x08,0x07
000f9c  fff807ff          DCB      0xff,0xf8,0x07,0xff
000fa0  f8040808          DCB      0xf8,0x04,0x08,0x08
000fa4  04080804          DCB      0x04,0x08,0x08,0x04
000fa8  08080408          DCB      0x08,0x08,0x04,0x08
000fac  08043e08          DCB      0x08,0x04,0x3e,0x08
000fb0  04000806          DCB      0x04,0x00,0x08,0x06
000fb4  00180100          DCB      0x00,0x18,0x01,0x00
000fb8  60000000          DCB      0x60,0x00,0x00,0x00
000fbc  04000807          DCB      0x04,0x00,0x08,0x07
000fc0  fff807ff          DCB      0xff,0xf8,0x07,0xff
000fc4  f8040808          DCB      0xf8,0x04,0x08,0x08
000fc8  04080004          DCB      0x04,0x08,0x00,0x04
000fcc  08000408          DCB      0x08,0x00,0x04,0x08
000fd0  00043e00          DCB      0x00,0x04,0x3e,0x00
000fd4  06000006          DCB      0x06,0x00,0x00,0x06
000fd8  00000180          DCB      0x00,0x00,0x01,0x80
000fdc  00000000          DCB      0x00,0x00,0x00,0x00
000fe0  00000000          DCB      0x00,0x00,0x00,0x00
000fe4  3f8001ff          DCB      0x3f,0x80,0x01,0xff
000fe8  e0038070          DCB      0xe0,0x03,0x80,0x70
000fec  06001804          DCB      0x06,0x00,0x18,0x04
000ff0  00080402          DCB      0x00,0x08,0x04,0x02
000ff4  08040208          DCB      0x08,0x04,0x02,0x08
000ff8  0203f007          DCB      0x02,0x03,0xf0,0x07
000ffc  83f00002          DCB      0x83,0xf0,0x00,0x02
001000  00000200          DCB      0x00,0x00,0x02,0x00
001004  04000807          DCB      0x04,0x00,0x08,0x07
001008  fff807ff          DCB      0xff,0xf8,0x07,0xff
00100c  f8040808          DCB      0xf8,0x04,0x08,0x08
001010  00080000          DCB      0x00,0x08,0x00,0x00
001014  08000008          DCB      0x08,0x00,0x00,0x08
001018  00000800          DCB      0x00,0x00,0x08,0x00
00101c  04080807          DCB      0x04,0x08,0x08,0x07
001020  fff807ff          DCB      0xff,0xf8,0x07,0xff
001024  f8040008          DCB      0xf8,0x04,0x00,0x08
001028  00000000          DCB      0x00,0x00,0x00,0x00
00102c  00000400          DCB      0x00,0x00,0x04,0x00
001030  08040008          DCB      0x08,0x04,0x00,0x08
001034  04000807          DCB      0x04,0x00,0x08,0x07
001038  fff807ff          DCB      0xff,0xf8,0x07,0xff
00103c  f8040008          DCB      0xf8,0x04,0x00,0x08
001040  04000804          DCB      0x04,0x00,0x08,0x04
001044  00080000          DCB      0x00,0x08,0x00,0x00
001048  00000000          DCB      0x00,0x00,0x00,0x00
00104c  00000000          DCB      0x00,0x00,0x00,0x00
001050  00060000          DCB      0x00,0x06,0x00,0x00
001054  07000001          DCB      0x07,0x00,0x00,0x01
001058  04000104          DCB      0x04,0x00,0x01,0x04
00105c  00010400          DCB      0x00,0x01,0x04,0x00
001060  0307fffe          DCB      0x03,0x07,0xff,0xfe
001064  07fffc04          DCB      0x07,0xff,0xfc,0x04
001068  00000400          DCB      0x00,0x00,0x04,0x00
00106c  00040000          DCB      0x00,0x04,0x00,0x00
001070  04000807          DCB      0x04,0x00,0x08,0x07
001074  fff807ff          DCB      0xff,0xf8,0x07,0xff
001078  f8040c08          DCB      0xf8,0x04,0x0c,0x08
00107c  00180000          DCB      0x00,0x18,0x00,0x00
001080  3e0004c7          DCB      0x3e,0x00,0x04,0xc7
001084  800503c8          DCB      0x80,0x05,0x03,0xc8
001088  0600f804          DCB      0x06,0x00,0xf8,0x04
00108c  00380400          DCB      0x00,0x38,0x04,0x00
001090  18000008          DCB      0x18,0x00,0x00,0x08
001094  04000807          DCB      0x04,0x00,0x08,0x07
001098  fff807ff          DCB      0xff,0xf8,0x07,0xff
00109c  f8040008          DCB      0xf8,0x04,0x00,0x08
0010a0  00000800          DCB      0x00,0x00,0x08,0x00
0010a4  00080000          DCB      0x00,0x08,0x00,0x00
0010a8  08000008          DCB      0x08,0x00,0x00,0x08
0010ac  00000800          DCB      0x00,0x00,0x08,0x00
0010b0  00180000          DCB      0x00,0x18,0x00,0x00
0010b4  60000000          DCB      0x60,0x00,0x00,0x00
0010b8  04000807          DCB      0x04,0x00,0x08,0x07
0010bc  fff80780          DCB      0xff,0xf8,0x07,0x80
0010c0  0807fc00          DCB      0x08,0x07,0xfc,0x00
0010c4  007fc000          DCB      0x00,0x7f,0xc0,0x00
0010c8  03f80007          DCB      0x03,0xf8,0x00,0x07
0010cc  c0007800          DCB      0xc0,0x00,0x78,0x00
0010d0  07800807          DCB      0x07,0x80,0x08,0x07
0010d4  fff807ff          DCB      0xff,0xf8,0x07,0xff
0010d8  f8040008          DCB      0xf8,0x04,0x00,0x08
0010dc  04000807          DCB      0x04,0x00,0x08,0x07
0010e0  fff80700          DCB      0xff,0xf8,0x07,0x00
0010e4  0803c000          DCB      0x08,0x03,0xc0,0x00
0010e8  00e00000          DCB      0x00,0xe0,0x00,0x00
0010ec  3800001e          DCB      0x38,0x00,0x00,0x1e
0010f0  00000700          DCB      0x00,0x00,0x07,0x00
0010f4  0001c004          DCB      0x00,0x01,0xc0,0x04
0010f8  00f007ff          DCB      0x00,0xf0,0x07,0xff
0010fc  f8040000          DCB      0xf8,0x04,0x00,0x00
001100  00000000          DCB      0x00,0x00,0x00,0x00
001104  7f8001ff          DCB      0x7f,0x80,0x01,0xff
001108  e0038070          DCB      0xe0,0x03,0x80,0x70
00110c  06001804          DCB      0x06,0x00,0x18,0x04
001110  00080400          DCB      0x00,0x08,0x04,0x00
001114  08060018          DCB      0x08,0x06,0x00,0x18
001118  03003001          DCB      0x03,0x00,0x30,0x01
00111c  ffe0007f          DCB      0xff,0xe0,0x00,0x7f
001120  80000000          DCB      0x80,0x00,0x00,0x00
001124  04000807          DCB      0x04,0x00,0x08,0x07
001128  fff807ff          DCB      0xff,0xf8,0x07,0xff
00112c  f8040408          DCB      0xf8,0x04,0x04,0x08
001130  04040004          DCB      0x04,0x04,0x00,0x04
001134  04000404          DCB      0x04,0x00,0x04,0x04
001138  00040400          DCB      0x00,0x04,0x04,0x00
00113c  060c0003          DCB      0x06,0x0c,0x00,0x03
001140  f80001f0          DCB      0xf8,0x00,0x01,0xf0
001144  00000000          DCB      0x00,0x00,0x00,0x00
001148  00000000          DCB      0x00,0x00,0x00,0x00
00114c  7f8001ff          DCB      0x7f,0x80,0x01,0xff
001150  e0038070          DCB      0xe0,0x03,0x80,0x70
001154  06008804          DCB      0x06,0x00,0x88,0x04
001158  00880400          DCB      0x00,0x88,0x04,0x00
00115c  c806003c          DCB      0xc8,0x06,0x00,0x3c
001160  03003e01          DCB      0x03,0x00,0x3e,0x01
001164  ffe6007f          DCB      0xff,0xe6,0x00,0x7f
001168  84000000          DCB      0x84,0x00,0x00,0x00
00116c  04000807          DCB      0x04,0x00,0x08,0x07
001170  fff807ff          DCB      0xff,0xf8,0x07,0xff
001174  f8040808          DCB      0xf8,0x04,0x08,0x08
001178  04080004          DCB      0x04,0x08,0x00,0x04
00117c  0c00040f          DCB      0x0c,0x00,0x04,0x0f
001180  00040bc0          DCB      0x00,0x04,0x0b,0xc0
001184  0610f003          DCB      0x06,0x10,0xf0,0x03
001188  f03801e0          DCB      0xf0,0x38,0x01,0xe0
00118c  08000008          DCB      0x08,0x00,0x00,0x08
001190  00000001          DCB      0x00,0x00,0x00,0x01
001194  e0f803f0          DCB      0xe0,0xf8,0x03,0xf0
001198  30063010          DCB      0x30,0x06,0x30,0x10
00119c  04180804          DCB      0x04,0x18,0x08,0x04
0011a0  1808040c          DCB      0x18,0x08,0x04,0x0c
0011a4  08040c08          DCB      0x08,0x04,0x0c,0x08
0011a8  02061802          DCB      0x02,0x06,0x18,0x02
0011ac  07f00781          DCB      0x07,0xf0,0x07,0x81
0011b0  e0000000          DCB      0xe0,0x00,0x00,0x00
0011b4  01800006          DCB      0x01,0x80,0x00,0x06
0011b8  00000400          DCB      0x00,0x00,0x04,0x00
0011bc  00040000          DCB      0x00,0x04,0x00,0x00
0011c0  04000807          DCB      0x04,0x00,0x08,0x07
0011c4  fff807ff          DCB      0xff,0xf8,0x07,0xff
0011c8  f8040008          DCB      0xf8,0x04,0x00,0x08
0011cc  04000004          DCB      0x04,0x00,0x00,0x04
0011d0  00000600          DCB      0x00,0x00,0x06,0x00
0011d4  00018000          DCB      0x00,0x01,0x80,0x00
0011d8  04000007          DCB      0x04,0x00,0x00,0x07
0011dc  ffe007ff          DCB      0xff,0xe0,0x07,0xff
0011e0  f0040018          DCB      0xf0,0x04,0x00,0x18
0011e4  00000800          DCB      0x00,0x00,0x08,0x00
0011e8  00080000          DCB      0x00,0x08,0x00,0x00
0011ec  08000008          DCB      0x08,0x00,0x00,0x08
0011f0  00000804          DCB      0x00,0x00,0x08,0x04
0011f4  001007ff          DCB      0x00,0x10,0x07,0xff
0011f8  e0040000          DCB      0xe0,0x04,0x00,0x00
0011fc  04000006          DCB      0x04,0x00,0x00,0x06
001200  000007e0          DCB      0x00,0x00,0x07,0xe0
001204  0007fe00          DCB      0x00,0x07,0xfe,0x00
001208  041fe000          DCB      0x04,0x1f,0xe0,0x00
00120c  01f80000          DCB      0x01,0xf8,0x00,0x00
001210  380001e0          DCB      0x38,0x00,0x01,0xe0
001214  043e0007          DCB      0x04,0x3e,0x00,0x07
001218  c0000600          DCB      0xc0,0x00,0x06,0x00
00121c  00040000          DCB      0x00,0x04,0x00,0x00
001220  04000007          DCB      0x04,0x00,0x00,0x07
001224  e00007ff          DCB      0xe0,0x00,0x07,0xff
001228  c0041ff8          DCB      0xc0,0x04,0x1f,0xf8
00122c  0007c007          DCB      0x00,0x07,0xc0,0x07
001230  f80007ff          DCB      0xf8,0x00,0x07,0xff
001234  80043ff8          DCB      0x80,0x04,0x3f,0xf8
001238  0007c004          DCB      0x00,0x07,0xc0,0x04
00123c  f8000700          DCB      0xf8,0x00,0x07,0x00
001240  00040000          DCB      0x00,0x04,0x00,0x00
001244  00000004          DCB      0x00,0x00,0x00,0x04
001248  00080600          DCB      0x00,0x08,0x06,0x00
00124c  1807c078          DCB      0x18,0x07,0xc0,0x78
001250  05f1c800          DCB      0x05,0xf1,0xc8,0x00
001254  3e00001f          DCB      0x3e,0x00,0x00,0x1f
001258  800463e8          DCB      0x80,0x04,0x63,0xe8
00125c  0780f806          DCB      0x07,0x80,0xf8,0x06
001260  00180400          DCB      0x00,0x18,0x04,0x00
001264  08000000          DCB      0x08,0x00,0x00,0x00
001268  04000006          DCB      0x04,0x00,0x00,0x06
00126c  00000780          DCB      0x00,0x00,0x07,0x80
001270  0007e008          DCB      0x00,0x07,0xe0,0x08
001274  047c0800          DCB      0x04,0x7c,0x08,0x00
001278  1ff80007          DCB      0x1f,0xf8,0x00,0x07
00127c  f8001808          DCB      0xf8,0x00,0x18,0x08
001280  04e00807          DCB      0x04,0xe0,0x08,0x07
001284  00000600          DCB      0x00,0x00,0x06,0x00
001288  00040000          DCB      0x00,0x04,0x00,0x00
00128c  00000001          DCB      0x00,0x00,0x00,0x01
001290  00080600          DCB      0x00,0x08,0x06,0x00
001294  380400f8          DCB      0x38,0x04,0x00,0xf8
001298  0403e804          DCB      0x04,0x03,0xe8,0x04
00129c  0f08047c          DCB      0x0f,0x08,0x04,0x7c
0012a0  0805f008          DCB      0x08,0x05,0xf0,0x08
0012a4  07c00807          DCB      0x07,0xc0,0x08,0x07
0012a8  00180400          DCB      0x00,0x18,0x04,0x00
0012ac  60000000          DCB      0x60,0x00,0x00,0x00
0012b0  00000000          DCB      0x00,0x00,0x00,0x00
0012b4  00000000          DCB      0x00,0x00,0x00,0x00
0012b8  00000000          DCB      0x00,0x00,0x00,0x00
0012bc  0000003f          DCB      0x00,0x00,0x00,0x3f
0012c0  fffe2000          DCB      0xff,0xfe,0x20,0x00
0012c4  02200002          DCB      0x02,0x20,0x00,0x02
0012c8  20000220          DCB      0x20,0x00,0x02,0x20
0012cc  00022000          DCB      0x00,0x02,0x20,0x00
0012d0  02000000          DCB      0x02,0x00,0x00,0x00
0012d4  00000000          DCB      0x00,0x00,0x00,0x00
0012d8  00000800          DCB      0x00,0x00,0x08,0x00
0012dc  00070000          DCB      0x00,0x07,0x00,0x00
0012e0  00c00000          DCB      0x00,0xc0,0x00,0x00
0012e4  38000006          DCB      0x38,0x00,0x00,0x06
0012e8  000001c0          DCB      0x00,0x00,0x01,0xc0
0012ec  00003000          DCB      0x00,0x00,0x30,0x00
0012f0  000e0000          DCB      0x00,0x0e,0x00,0x00
0012f4  01000000          DCB      0x01,0x00,0x00,0x00
0012f8  00000000          DCB      0x00,0x00,0x00,0x00
0012fc  00002000          DCB      0x00,0x00,0x20,0x00
001300  02200002          DCB      0x02,0x20,0x00,0x02
001304  20000220          DCB      0x20,0x00,0x02,0x20
001308  00022000          DCB      0x00,0x02,0x20,0x00
00130c  023ffffe          DCB      0x02,0x3f,0xff,0xfe
001310  00000000          DCB      0x00,0x00,0x00,0x00
001314  00000000          DCB      0x00,0x00,0x00,0x00
001318  00000000          DCB      0x00,0x00,0x00,0x00
00131c  00000000          DCB      0x00,0x00,0x00,0x00
001320  00000000          DCB      0x00,0x00,0x00,0x00
001324  00080000          DCB      0x00,0x08,0x00,0x00
001328  10000030          DCB      0x10,0x00,0x00,0x30
00132c  00002000          DCB      0x00,0x00,0x20,0x00
001330  00300000          DCB      0x00,0x30,0x00,0x00
001334  10000008          DCB      0x10,0x00,0x00,0x08
001338  00000000          DCB      0x00,0x00,0x00,0x00
00133c  00000000          DCB      0x00,0x00,0x00,0x00
001340  00000100          DCB      0x00,0x00,0x01,0x00
001344  00010000          DCB      0x00,0x01,0x00,0x00
001348  01000001          DCB      0x01,0x00,0x00,0x01
00134c  00000100          DCB      0x00,0x00,0x01,0x00
001350  00010000          DCB      0x00,0x01,0x00,0x00
001354  01000001          DCB      0x01,0x00,0x00,0x01
001358  00000100          DCB      0x00,0x00,0x01,0x00
00135c  00010000          DCB      0x00,0x01,0x00,0x00
001360  01000001          DCB      0x01,0x00,0x00,0x01
001364  00000000          DCB      0x00,0x00,0x00,0x00
001368  00000000          DCB      0x00,0x00,0x00,0x00
00136c  00200000          DCB      0x00,0x20,0x00,0x00
001370  20000010          DCB      0x20,0x00,0x00,0x10
001374  00001000          DCB      0x00,0x00,0x10,0x00
001378  00000000          DCB      0x00,0x00,0x00,0x00
00137c  00000000          DCB      0x00,0x00,0x00,0x00
001380  00000000          DCB      0x00,0x00,0x00,0x00
001384  00000000          DCB      0x00,0x00,0x00,0x00
001388  00000000          DCB      0x00,0x00,0x00,0x00
00138c  00f00019          DCB      0x00,0xf0,0x00,0x19
001390  f8001b18          DCB      0xf8,0x00,0x1b,0x18
001394  00220800          DCB      0x00,0x22,0x08,0x00
001398  26080024          DCB      0x26,0x08,0x00,0x24
00139c  08002410          DCB      0x08,0x00,0x24,0x10
0013a0  003ff800          DCB      0x00,0x3f,0xf8,0x00
0013a4  1ff80000          DCB      0x1f,0xf8,0x00,0x00
0013a8  08000018          DCB      0x08,0x00,0x00,0x18
0013ac  00000004          DCB      0x00,0x00,0x00,0x04
0013b0  000007ff          DCB      0x00,0x00,0x07,0xff
0013b4  f80ffff0          DCB      0xf8,0x0f,0xff,0xf0
0013b8  00181800          DCB      0x00,0x18,0x18,0x00
0013bc  10080020          DCB      0x10,0x08,0x00,0x20
0013c0  08002008          DCB      0x08,0x00,0x20,0x08
0013c4  00301800          DCB      0x00,0x30,0x18,0x00
0013c8  1ff0000f          DCB      0x1f,0xf0,0x00,0x0f
0013cc  c0000000          DCB      0xc0,0x00,0x00,0x00
0013d0  00000000          DCB      0x00,0x00,0x00,0x00
0013d4  07c0001f          DCB      0x07,0xc0,0x00,0x1f
0013d8  f0001830          DCB      0xf0,0x00,0x18,0x30
0013dc  00200800          DCB      0x00,0x20,0x08,0x00
0013e0  20080020          DCB      0x20,0x08,0x00,0x20
0013e4  08003c08          DCB      0x08,0x00,0x3c,0x08
0013e8  001c1000          DCB      0x00,0x1c,0x10,0x00
0013ec  00600000          DCB      0x00,0x60,0x00,0x00
0013f0  00000000          DCB      0x00,0x00,0x00,0x00
0013f4  00000000          DCB      0x00,0x00,0x00,0x00
0013f8  07c0001f          DCB      0x07,0xc0,0x00,0x1f
0013fc  f0003818          DCB      0xf0,0x00,0x38,0x18
001400  00200800          DCB      0x00,0x20,0x08,0x00
001404  20080020          DCB      0x20,0x08,0x00,0x20
001408  08041010          DCB      0x08,0x04,0x10,0x10
00140c  07fff80f          DCB      0x07,0xff,0xf8,0x0f
001410  fff00000          DCB      0xff,0xf0,0x00,0x00
001414  10000000          DCB      0x10,0x00,0x00,0x00
001418  00000000          DCB      0x00,0x00,0x00,0x00
00141c  00000007          DCB      0x00,0x00,0x00,0x07
001420  c0001ff0          DCB      0xc0,0x00,0x1f,0xf0
001424  00123000          DCB      0x00,0x12,0x30,0x00
001428  22180022          DCB      0x22,0x18,0x00,0x22
00142c  08002208          DCB      0x08,0x00,0x22,0x08
001430  00320800          DCB      0x00,0x32,0x08,0x00
001434  1e10000e          DCB      0x1e,0x10,0x00,0x0e
001438  20000000          DCB      0x20,0x00,0x00,0x00
00143c  00000000          DCB      0x00,0x00,0x00,0x00
001440  20000020          DCB      0x20,0x00,0x00,0x20
001444  08002008          DCB      0x08,0x00,0x20,0x08
001448  01fff803          DCB      0x01,0xff,0xf8,0x03
00144c  fff80620          DCB      0xff,0xf8,0x06,0x20
001450  08042008          DCB      0x08,0x04,0x20,0x08
001454  04200807          DCB      0x04,0x20,0x08,0x07
001458  20000300          DCB      0x20,0x00,0x03,0x00
00145c  00000000          DCB      0x00,0x00,0x00,0x00
001460  00000000          DCB      0x00,0x00,0x00,0x00
001464  000e000e          DCB      0x00,0x0e,0x00,0x0e
001468  6e001ff3          DCB      0x6e,0x00,0x1f,0xf3
00146c  0031b100          DCB      0x00,0x31,0xb1,0x00
001470  20b10020          DCB      0x20,0xb1,0x00,0x20
001474  b1003191          DCB      0xb1,0x00,0x31,0x91
001478  001f1300          DCB      0x00,0x1f,0x13,0x00
00147c  2e1e0020          DCB      0x2e,0x1e,0x00,0x20
001480  0e003000          DCB      0x0e,0x00,0x30,0x00
001484  00000004          DCB      0x00,0x00,0x00,0x04
001488  000807ff          DCB      0x00,0x08,0x07,0xff
00148c  f80ffff8          DCB      0xf8,0x0f,0xff,0xf8
001490  00100800          DCB      0x00,0x10,0x08,0x00
001494  20000020          DCB      0x20,0x00,0x00,0x20
001498  00002008          DCB      0x00,0x00,0x20,0x08
00149c  003ff800          DCB      0x00,0x3f,0xf8,0x00
0014a0  1ff80000          DCB      0x1f,0xf8,0x00,0x00
0014a4  08000000          DCB      0x08,0x00,0x00,0x00
0014a8  00000000          DCB      0x00,0x00,0x00,0x00
0014ac  00000020          DCB      0x00,0x00,0x00,0x20
0014b0  08002008          DCB      0x08,0x00,0x20,0x08
0014b4  00200806          DCB      0x00,0x20,0x08,0x06
0014b8  3ff8063f          DCB      0x3f,0xf8,0x06,0x3f
0014bc  f8000008          DCB      0xf8,0x00,0x00,0x08
0014c0  00000800          DCB      0x00,0x00,0x08,0x00
0014c4  00080000          DCB      0x00,0x08,0x00,0x00
0014c8  00000000          DCB      0x00,0x00,0x00,0x00
0014cc  00000000          DCB      0x00,0x00,0x00,0x00
0014d0  00000000          DCB      0x00,0x00,0x00,0x00
0014d4  03000003          DCB      0x03,0x00,0x00,0x03
0014d8  00200100          DCB      0x00,0x20,0x01,0x00
0014dc  20010020          DCB      0x20,0x01,0x00,0x20
0014e0  03063ffe          DCB      0x03,0x06,0x3f,0xfe
0014e4  063ffc00          DCB      0x06,0x3f,0xfc,0x00
0014e8  00000000          DCB      0x00,0x00,0x00,0x00
0014ec  00000000          DCB      0x00,0x00,0x00,0x00
0014f0  00000004          DCB      0x00,0x00,0x00,0x04
0014f4  000807ff          DCB      0x00,0x08,0x07,0xff
0014f8  f80ffff8          DCB      0xf8,0x0f,0xff,0xf8
0014fc  00018800          DCB      0x00,0x01,0x88,0x00
001500  0300002f          DCB      0x03,0x00,0x00,0x2f
001504  c00038f8          DCB      0xc0,0x00,0x38,0xf8
001508  00203800          DCB      0x00,0x20,0x38,0x00
00150c  20080000          DCB      0x20,0x08,0x00,0x00
001510  08000000          DCB      0x08,0x00,0x00,0x00
001514  00000000          DCB      0x00,0x00,0x00,0x00
001518  00000400          DCB      0x00,0x00,0x04,0x00
00151c  08040008          DCB      0x08,0x04,0x00,0x08
001520  04000807          DCB      0x04,0x00,0x08,0x07
001524  fff80fff          DCB      0xff,0xf8,0x0f,0xff
001528  f8000008          DCB      0xf8,0x00,0x00,0x08
00152c  00000800          DCB      0x00,0x00,0x08,0x00
001530  00080000          DCB      0x00,0x08,0x00,0x00
001534  00000000          DCB      0x00,0x00,0x00,0x00
001538  00200800          DCB      0x00,0x20,0x08,0x00
00153c  3ff8003f          DCB      0x3f,0xf8,0x00,0x3f
001540  f8001008          DCB      0xf8,0x00,0x10,0x08
001544  00200000          DCB      0x00,0x20,0x00,0x00
001548  3ff8003f          DCB      0x3f,0xf8,0x00,0x3f
00154c  f8001008          DCB      0xf8,0x00,0x10,0x08
001550  00200000          DCB      0x00,0x20,0x00,0x00
001554  3ff8003f          DCB      0x3f,0xf8,0x00,0x3f
001558  f8000008          DCB      0xf8,0x00,0x00,0x08
00155c  00000000          DCB      0x00,0x00,0x00,0x00
001560  2008003f          DCB      0x20,0x08,0x00,0x3f
001564  f8003ff8          DCB      0xf8,0x00,0x3f,0xf8
001568  00100800          DCB      0x00,0x10,0x08,0x00
00156c  10000020          DCB      0x10,0x00,0x00,0x20
001570  00002008          DCB      0x00,0x00,0x20,0x08
001574  003ff800          DCB      0x00,0x3f,0xf8,0x00
001578  1ff80000          DCB      0x1f,0xf8,0x00,0x00
00157c  08000000          DCB      0x08,0x00,0x00,0x00
001580  00000000          DCB      0x00,0x00,0x00,0x00
001584  07c0000f          DCB      0x07,0xc0,0x00,0x0f
001588  f0001830          DCB      0xf0,0x00,0x18,0x30
00158c  00300800          DCB      0x00,0x30,0x08,0x00
001590  20080020          DCB      0x20,0x08,0x00,0x20
001594  08003008          DCB      0x08,0x00,0x30,0x08
001598  00183000          DCB      0x00,0x18,0x30,0x00
00159c  0ff00007          DCB      0x0f,0xf0,0x00,0x07
0015a0  c0000000          DCB      0xc0,0x00,0x00,0x00
0015a4  00000000          DCB      0x00,0x00,0x00,0x00
0015a8  2001003f          DCB      0x20,0x01,0x00,0x3f
0015ac  ff003fff          DCB      0xff,0x00,0x3f,0xff
0015b0  00101100          DCB      0x00,0x10,0x11,0x00
0015b4  20090020          DCB      0x20,0x09,0x00,0x20
0015b8  08002008          DCB      0x08,0x00,0x20,0x08
0015bc  00303800          DCB      0x00,0x30,0x38,0x00
0015c0  1ff0000f          DCB      0x1f,0xf0,0x00,0x0f
0015c4  c0000000          DCB      0xc0,0x00,0x00,0x00
0015c8  00000000          DCB      0x00,0x00,0x00,0x00
0015cc  07c0001f          DCB      0x07,0xc0,0x00,0x1f
0015d0  f0003818          DCB      0xf0,0x00,0x38,0x18
0015d4  00200800          DCB      0x00,0x20,0x08,0x00
0015d8  20080020          DCB      0x20,0x08,0x00,0x20
0015dc  09001011          DCB      0x09,0x00,0x10,0x11
0015e0  001fff00          DCB      0x00,0x1f,0xff,0x00
0015e4  3fff0000          DCB      0x3f,0xff,0x00,0x00
0015e8  01000000          DCB      0x01,0x00,0x00,0x00
0015ec  00200800          DCB      0x00,0x20,0x08,0x00
0015f0  20080020          DCB      0x20,0x08,0x00,0x20
0015f4  08003ff8          DCB      0x08,0x00,0x3f,0xf8
0015f8  003ff800          DCB      0x00,0x3f,0xf8,0x00
0015fc  08080010          DCB      0x08,0x08,0x00,0x10
001600  08002008          DCB      0x08,0x00,0x20,0x08
001604  00200000          DCB      0x00,0x20,0x00,0x00
001608  30000030          DCB      0x30,0x00,0x00,0x30
00160c  00000000          DCB      0x00,0x00,0x00,0x00
001610  00000000          DCB      0x00,0x00,0x00,0x00
001614  0000000c          DCB      0x00,0x00,0x00,0x0c
001618  78001e18          DCB      0x78,0x00,0x1e,0x18
00161c  00330800          DCB      0x00,0x33,0x08,0x00
001620  23080021          DCB      0x23,0x08,0x00,0x21
001624  08002188          DCB      0x08,0x00,0x21,0x88
001628  00219800          DCB      0x00,0x21,0x98,0x00
00162c  30f00038          DCB      0x30,0xf0,0x00,0x38
001630  60000000          DCB      0x60,0x00,0x00,0x00
001634  00000000          DCB      0x00,0x00,0x00,0x00
001638  20000020          DCB      0x20,0x00,0x00,0x20
00163c  00002000          DCB      0x00,0x00,0x20,0x00
001640  00fff003          DCB      0x00,0xff,0xf0,0x03
001644  fff80020          DCB      0xff,0xf8,0x00,0x20
001648  08002008          DCB      0x08,0x00,0x20,0x08
00164c  00200800          DCB      0x00,0x20,0x08,0x00
001650  00300000          DCB      0x00,0x30,0x00,0x00
001654  00000000          DCB      0x00,0x00,0x00,0x00
001658  00000000          DCB      0x00,0x00,0x00,0x00
00165c  2000003f          DCB      0x20,0x00,0x00,0x3f
001660  f0007ff8          DCB      0xf0,0x00,0x7f,0xf8
001664  00001800          DCB      0x00,0x00,0x18,0x00
001668  00080000          DCB      0x00,0x08,0x00,0x00
00166c  08002010          DCB      0x08,0x00,0x20,0x10
001670  003ff800          DCB      0x00,0x3f,0xf8,0x00
001674  7ff00000          DCB      0x7f,0xf0,0x00,0x00
001678  10000000          DCB      0x10,0x00,0x00,0x00
00167c  00000000          DCB      0x00,0x00,0x00,0x00
001680  20000030          DCB      0x20,0x00,0x00,0x30
001684  00003c00          DCB      0x00,0x00,0x3c,0x00
001688  003f8000          DCB      0x00,0x3f,0x80,0x00
00168c  23f00000          DCB      0x23,0xf0,0x00,0x00
001690  78000070          DCB      0x78,0x00,0x00,0x70
001694  00238000          DCB      0x00,0x23,0x80,0x00
001698  3c000030          DCB      0x3c,0x00,0x00,0x30
00169c  00002000          DCB      0x00,0x00,0x20,0x00
0016a0  00200000          DCB      0x00,0x20,0x00,0x00
0016a4  3c00003f          DCB      0x3c,0x00,0x00,0x3f
0016a8  e00023f8          DCB      0xe0,0x00,0x23,0xf8
0016ac  0000e000          DCB      0x00,0x00,0xe0,0x00
0016b0  2700003e          DCB      0x27,0x00,0x00,0x3e
0016b4  00003fe0          DCB      0x00,0x00,0x3f,0xe0
0016b8  0021f800          DCB      0x00,0x21,0xf8,0x00
0016bc  01e0003e          DCB      0x01,0xe0,0x00,0x3e
0016c0  00002000          DCB      0x00,0x00,0x20,0x00
0016c4  00000000          DCB      0x00,0x00,0x00,0x00
0016c8  20080020          DCB      0x20,0x08,0x00,0x20
0016cc  08003838          DCB      0x08,0x00,0x38,0x38
0016d0  003e6800          DCB      0x00,0x3e,0x68,0x00
0016d4  27800003          DCB      0x27,0x80,0x00,0x03
0016d8  c8002cf8          DCB      0xc8,0x00,0x2c,0xf8
0016dc  00383800          DCB      0x00,0x38,0x38,0x00
0016e0  20180020          DCB      0x20,0x18,0x00,0x20
0016e4  08000000          DCB      0x08,0x00,0x00,0x00
0016e8  00000000          DCB      0x00,0x00,0x00,0x00
0016ec  20000030          DCB      0x20,0x00,0x00,0x30
0016f0  03003c01          DCB      0x03,0x00,0x3c,0x01
0016f4  003f8300          DCB      0x00,0x3f,0x83,0x00
0016f8  23ec0000          DCB      0x23,0xec,0x00,0x00
0016fc  70002380          DCB      0x70,0x00,0x23,0x80
001700  003c0000          DCB      0x00,0x3c,0x00,0x00
001704  20000020          DCB      0x20,0x00,0x00,0x20
001708  00000000          DCB      0x00,0x00,0x00,0x00
00170c  00000000          DCB      0x00,0x00,0x00,0x00
001710  00000038          DCB      0x00,0x00,0x00,0x38
001714  08002038          DCB      0x08,0x00,0x20,0x38
001718  0020f800          DCB      0x00,0x20,0xf8,0x00
00171c  23e8002f          DCB      0x23,0xe8,0x00,0x2f
001720  88003e08          DCB      0x88,0x00,0x3e,0x08
001724  00380800          DCB      0x00,0x38,0x08,0x00
001728  20180000          DCB      0x20,0x18,0x00,0x00
00172c  70000000          DCB      0x70,0x00,0x00,0x00
001730  00000000          DCB      0x00,0x00,0x00,0x00
001734  00000000          DCB      0x00,0x00,0x00,0x00
001738  00000000          DCB      0x00,0x00,0x00,0x00
00173c  00000000          DCB      0x00,0x00,0x00,0x00
001740  08000014          DCB      0x08,0x00,0x00,0x14
001744  001ff7fc          DCB      0x00,0x1f,0xf7,0xfc
001748  30000620          DCB      0x30,0x00,0x06,0x20
00174c  00020000          DCB      0x00,0x02,0x00,0x00
001750  00000000          DCB      0x00,0x00,0x00,0x00
001754  00000000          DCB      0x00,0x00,0x00,0x00
001758  00000000          DCB      0x00,0x00,0x00,0x00
00175c  00000000          DCB      0x00,0x00,0x00,0x00
001760  00000000          DCB      0x00,0x00,0x00,0x00
001764  0000ffff          DCB      0x00,0x00,0xff,0xff
001768  ff000000          DCB      0xff,0x00,0x00,0x00
00176c  00000000          DCB      0x00,0x00,0x00,0x00
001770  00000000          DCB      0x00,0x00,0x00,0x00
001774  00000000          DCB      0x00,0x00,0x00,0x00
001778  00000000          DCB      0x00,0x00,0x00,0x00
00177c  00002000          DCB      0x00,0x00,0x20,0x00
001780  02300006          DCB      0x02,0x30,0x00,0x06
001784  1ff7fc00          DCB      0x1f,0xf7,0xfc,0x00
001788  14000008          DCB      0x14,0x00,0x00,0x08
00178c  00000000          DCB      0x00,0x00,0x00,0x00
001790  00000000          DCB      0x00,0x00,0x00,0x00
001794  00000000          DCB      0x00,0x00,0x00,0x00
001798  00000000          DCB      0x00,0x00,0x00,0x00
00179c  00000018          DCB      0x00,0x00,0x00,0x18
0017a0  00006000          DCB      0x00,0x00,0x60,0x00
0017a4  00400000          DCB      0x00,0x40,0x00,0x00
0017a8  40000020          DCB      0x40,0x00,0x00,0x20
0017ac  00001000          DCB      0x00,0x00,0x10,0x00
0017b0  00080000          DCB      0x00,0x08,0x00,0x00
0017b4  04000004          DCB      0x04,0x00,0x00,0x04
0017b8  00000c00          DCB      0x00,0x00,0x0c,0x00
0017bc  00100000          DCB      0x00,0x10,0x00,0x00

;*** Start embedded assembler ***

#line 1 "..\\..\\User\\bsp_stm32f4xx\\LCD\\bsp_lcd.c"
	AREA ||.rev16_text||, CODE
	THUMB
	EXPORT |__asm___9_bsp_lcd_c_b9e5b2ae____REV16|
#line 129 "..\\..\\Libraries\\CMSIS\\Include\\core_cmInstr.h"
|__asm___9_bsp_lcd_c_b9e5b2ae____REV16| PROC
#line 130

 rev16 r0, r0
 bx lr
	ENDP
	AREA ||.revsh_text||, CODE
	THUMB
	EXPORT |__asm___9_bsp_lcd_c_b9e5b2ae____REVSH|
#line 144
|__asm___9_bsp_lcd_c_b9e5b2ae____REVSH| PROC
#line 145

 revsh r0, r0
 bx lr
	ENDP
	AREA ||.rrx_text||, CODE
	THUMB
	EXPORT |__asm___9_bsp_lcd_c_b9e5b2ae____RRX|
#line 300
|__asm___9_bsp_lcd_c_b9e5b2ae____RRX| PROC
#line 301

 rrx r0, r0
 bx lr
	ENDP

;*** End   embedded assembler ***
